
NUCLEO_L432KC/STM32-dcmotor.elf:     file format elf32-littlearm
architecture: arm, flags 0x00000112:
EXEC_P, HAS_SYMS, D_PAGED
start address 0x08006619


Disassembly of section .text:

08000000 <g_pfnVectors>:
 8000000:	00 c0 00 20 19 66 00 08 51 66 00 08 51 66 00 08     ... .f..Qf..Qf..
 8000010:	51 66 00 08 51 66 00 08 51 66 00 08 00 00 00 00     Qf..Qf..Qf......
	...
 800002c:	dd 64 00 08 51 66 00 08 00 00 00 00 83 65 00 08     .d..Qf.......e..
 800003c:	e3 65 00 08 51 66 00 08 51 66 00 08 51 66 00 08     .e..Qf..Qf..Qf..
 800004c:	51 66 00 08 51 66 00 08 51 66 00 08 51 66 00 08     Qf..Qf..Qf..Qf..
 800005c:	51 66 00 08 51 66 00 08 51 66 00 08 51 66 00 08     Qf..Qf..Qf..Qf..
 800006c:	51 66 00 08 51 66 00 08 51 66 00 08 51 66 00 08     Qf..Qf..Qf..Qf..
 800007c:	51 66 00 08 51 66 00 08 51 66 00 08 51 66 00 08     Qf..Qf..Qf..Qf..
 800008c:	2d 3d 00 08 31 3d 00 08 51 66 00 08 2d 3c 00 08     -=..1=..Qf..-<..
 800009c:	51 66 00 08 51 66 00 08 51 66 00 08 51 66 00 08     Qf..Qf..Qf..Qf..
 80000ac:	51 66 00 08 51 66 00 08 00 00 00 00 00 00 00 00     Qf..Qf..........
 80000bc:	51 66 00 08 51 66 00 08 00 00 00 00 00 00 00 00     Qf..Qf..........
 80000cc:	51 66 00 08 00 00 00 00 51 66 00 08 51 66 00 08     Qf......Qf..Qf..
 80000dc:	00 00 00 00 51 66 00 08 51 66 00 08 00 00 00 00     ....Qf..Qf......
	...
 800010c:	51 66 00 08 00 00 00 00 00 00 00 00 51 66 00 08     Qf..........Qf..
 800011c:	51 66 00 08 51 66 00 08 51 66 00 08 51 66 00 08     Qf..Qf..Qf..Qf..
 800012c:	51 66 00 08 51 66 00 08 00 00 00 00 00 00 00 00     Qf..Qf..........
 800013c:	00 00 00 00 51 66 00 08 51 66 00 08 51 66 00 08     ....Qf..Qf..Qf..
 800014c:	51 66 00 08 51 66 00 08 51 66 00 08 51 66 00 08     Qf..Qf..Qf..Qf..
 800015c:	51 66 00 08 51 66 00 08 51 66 00 08 51 66 00 08     Qf..Qf..Qf..Qf..
 800016c:	00 00 00 00 51 66 00 08 51 66 00 08 00 00 00 00     ....Qf..Qf......
 800017c:	00 00 00 00 51 66 00 08 51 66 00 08 51 66 00 08     ....Qf..Qf..Qf..

0800018c <__do_global_dtors_aux>:
 800018c:	b510      	push	{r4, lr}
 800018e:	4c05      	ldr	r4, [pc, #20]	; (80001a4 <__do_global_dtors_aux+0x18>)
 8000190:	7823      	ldrb	r3, [r4, #0]
 8000192:	b933      	cbnz	r3, 80001a2 <__do_global_dtors_aux+0x16>
 8000194:	4b04      	ldr	r3, [pc, #16]	; (80001a8 <__do_global_dtors_aux+0x1c>)
 8000196:	b113      	cbz	r3, 800019e <__do_global_dtors_aux+0x12>
 8000198:	4804      	ldr	r0, [pc, #16]	; (80001ac <__do_global_dtors_aux+0x20>)
 800019a:	f3af 8000 	nop.w
 800019e:	2301      	movs	r3, #1
 80001a0:	7023      	strb	r3, [r4, #0]
 80001a2:	bd10      	pop	{r4, pc}
 80001a4:	200000a8 	.word	0x200000a8
 80001a8:	00000000 	.word	0x00000000
 80001ac:	0800891c 	.word	0x0800891c

080001b0 <frame_dummy>:
 80001b0:	4b0c      	ldr	r3, [pc, #48]	; (80001e4 <frame_dummy+0x34>)
 80001b2:	b143      	cbz	r3, 80001c6 <frame_dummy+0x16>
 80001b4:	480c      	ldr	r0, [pc, #48]	; (80001e8 <frame_dummy+0x38>)
 80001b6:	490d      	ldr	r1, [pc, #52]	; (80001ec <frame_dummy+0x3c>)
 80001b8:	b510      	push	{r4, lr}
 80001ba:	f3af 8000 	nop.w
 80001be:	480c      	ldr	r0, [pc, #48]	; (80001f0 <frame_dummy+0x40>)
 80001c0:	6803      	ldr	r3, [r0, #0]
 80001c2:	b923      	cbnz	r3, 80001ce <frame_dummy+0x1e>
 80001c4:	bd10      	pop	{r4, pc}
 80001c6:	480a      	ldr	r0, [pc, #40]	; (80001f0 <frame_dummy+0x40>)
 80001c8:	6803      	ldr	r3, [r0, #0]
 80001ca:	b933      	cbnz	r3, 80001da <frame_dummy+0x2a>
 80001cc:	4770      	bx	lr
 80001ce:	4b09      	ldr	r3, [pc, #36]	; (80001f4 <frame_dummy+0x44>)
 80001d0:	2b00      	cmp	r3, #0
 80001d2:	d0f7      	beq.n	80001c4 <frame_dummy+0x14>
 80001d4:	e8bd 4010 	ldmia.w	sp!, {r4, lr}
 80001d8:	4718      	bx	r3
 80001da:	4b06      	ldr	r3, [pc, #24]	; (80001f4 <frame_dummy+0x44>)
 80001dc:	2b00      	cmp	r3, #0
 80001de:	d0f5      	beq.n	80001cc <frame_dummy+0x1c>
 80001e0:	4718      	bx	r3
 80001e2:	bf00      	nop
 80001e4:	00000000 	.word	0x00000000
 80001e8:	0800891c 	.word	0x0800891c
 80001ec:	200000ac 	.word	0x200000ac
 80001f0:	200000a4 	.word	0x200000a4
 80001f4:	00000000 	.word	0x00000000

080001f8 <std_msgs::Time::serialize(unsigned char*) const>:
 80001f8:	6843      	ldr	r3, [r0, #4]
 80001fa:	700b      	strb	r3, [r1, #0]
 80001fc:	6843      	ldr	r3, [r0, #4]
 80001fe:	0a1b      	lsrs	r3, r3, #8
 8000200:	704b      	strb	r3, [r1, #1]
 8000202:	88c3      	ldrh	r3, [r0, #6]
 8000204:	708b      	strb	r3, [r1, #2]
 8000206:	79c3      	ldrb	r3, [r0, #7]
 8000208:	70cb      	strb	r3, [r1, #3]
 800020a:	6883      	ldr	r3, [r0, #8]
 800020c:	710b      	strb	r3, [r1, #4]
 800020e:	6883      	ldr	r3, [r0, #8]
 8000210:	0a1b      	lsrs	r3, r3, #8
 8000212:	714b      	strb	r3, [r1, #5]
 8000214:	8943      	ldrh	r3, [r0, #10]
 8000216:	718b      	strb	r3, [r1, #6]
 8000218:	7ac3      	ldrb	r3, [r0, #11]
 800021a:	71cb      	strb	r3, [r1, #7]
 800021c:	2008      	movs	r0, #8
 800021e:	4770      	bx	lr

08000220 <std_msgs::Time::deserialize(unsigned char*)>:
 8000220:	780b      	ldrb	r3, [r1, #0]
 8000222:	6043      	str	r3, [r0, #4]
 8000224:	784a      	ldrb	r2, [r1, #1]
 8000226:	ea43 2302 	orr.w	r3, r3, r2, lsl #8
 800022a:	6043      	str	r3, [r0, #4]
 800022c:	788a      	ldrb	r2, [r1, #2]
 800022e:	ea43 4302 	orr.w	r3, r3, r2, lsl #16
 8000232:	6043      	str	r3, [r0, #4]
 8000234:	78ca      	ldrb	r2, [r1, #3]
 8000236:	ea43 6302 	orr.w	r3, r3, r2, lsl #24
 800023a:	6043      	str	r3, [r0, #4]
 800023c:	790b      	ldrb	r3, [r1, #4]
 800023e:	6083      	str	r3, [r0, #8]
 8000240:	794a      	ldrb	r2, [r1, #5]
 8000242:	ea43 2302 	orr.w	r3, r3, r2, lsl #8
 8000246:	6083      	str	r3, [r0, #8]
 8000248:	798a      	ldrb	r2, [r1, #6]
 800024a:	ea43 4302 	orr.w	r3, r3, r2, lsl #16
 800024e:	6083      	str	r3, [r0, #8]
 8000250:	79ca      	ldrb	r2, [r1, #7]
 8000252:	ea43 6302 	orr.w	r3, r3, r2, lsl #24
 8000256:	6083      	str	r3, [r0, #8]
 8000258:	2008      	movs	r0, #8
 800025a:	4770      	bx	lr

0800025c <std_msgs::Time::getType()>:
 800025c:	4800      	ldr	r0, [pc, #0]	; (8000260 <std_msgs::Time::getType()+0x4>)
 800025e:	4770      	bx	lr
 8000260:	08008231 	.word	0x08008231

08000264 <std_msgs::Time::getMD5()>:
 8000264:	4800      	ldr	r0, [pc, #0]	; (8000268 <std_msgs::Time::getMD5()+0x4>)
 8000266:	4770      	bx	lr
 8000268:	08008210 	.word	0x08008210

0800026c <rosserial_msgs::TopicInfo::getType()>:
 800026c:	4800      	ldr	r0, [pc, #0]	; (8000270 <rosserial_msgs::TopicInfo::getType()+0x4>)
 800026e:	4770      	bx	lr
 8000270:	080081a2 	.word	0x080081a2

08000274 <rosserial_msgs::TopicInfo::getMD5()>:
 8000274:	4800      	ldr	r0, [pc, #0]	; (8000278 <rosserial_msgs::TopicInfo::getMD5()+0x4>)
 8000276:	4770      	bx	lr
 8000278:	08008181 	.word	0x08008181

0800027c <rosserial_msgs::Log::getType()>:
 800027c:	4800      	ldr	r0, [pc, #0]	; (8000280 <rosserial_msgs::Log::getType()+0x4>)
 800027e:	4770      	bx	lr
 8000280:	0800816e 	.word	0x0800816e

08000284 <rosserial_msgs::Log::getMD5()>:
 8000284:	4800      	ldr	r0, [pc, #0]	; (8000288 <rosserial_msgs::Log::getMD5()+0x4>)
 8000286:	4770      	bx	lr
 8000288:	0800814d 	.word	0x0800814d

0800028c <rosserial_msgs::RequestParamResponse::getType()>:
 800028c:	4800      	ldr	r0, [pc, #0]	; (8000290 <rosserial_msgs::RequestParamResponse::getType()+0x4>)
 800028e:	4770      	bx	lr
 8000290:	080081bb 	.word	0x080081bb

08000294 <rosserial_msgs::RequestParamResponse::getMD5()>:
 8000294:	4800      	ldr	r0, [pc, #0]	; (8000298 <rosserial_msgs::RequestParamResponse::getMD5()+0x4>)
 8000296:	4770      	bx	lr
 8000298:	0800812c 	.word	0x0800812c

0800029c <measure_rotspeed()>:
 800029c:	4770      	bx	lr

0800029e <void mbed::Callback<void ()>::function_call<void (*)()>(void const*)>:
 800029e:	6803      	ldr	r3, [r0, #0]
 80002a0:	4718      	bx	r3

080002a2 <void mbed::Callback<void ()>::function_move<void (*)()>(void*, void const*)>:
 80002a2:	b108      	cbz	r0, 80002a8 <void mbed::Callback<void ()>::function_move<void (*)()>(void*, void const*)+0x6>
 80002a4:	680b      	ldr	r3, [r1, #0]
 80002a6:	6003      	str	r3, [r0, #0]
 80002a8:	4770      	bx	lr

080002aa <void mbed::Callback<void ()>::function_dtor<void (*)()>(void*)>:
 80002aa:	4770      	bx	lr

080002ac <ros::NodeHandle_<MbedHardware, 25, 25, 512, 512>::connected()>:
 80002ac:	f890 0578 	ldrb.w	r0, [r0, #1400]	; 0x578
 80002b0:	4770      	bx	lr
	...

080002b4 <controlticker()>:
 80002b4:	2101      	movs	r1, #1
 80002b6:	4801      	ldr	r0, [pc, #4]	; (80002bc <controlticker()+0x8>)
 80002b8:	f006 b812 	b.w	80062e0 <rtos::Thread::signal_set(long)>
 80002bc:	20000de8 	.word	0x20000de8

080002c0 <driveISR()>:
 80002c0:	b510      	push	{r4, lr}
 80002c2:	4c10      	ldr	r4, [pc, #64]	; (8000304 <driveISR()+0x44>)
 80002c4:	7823      	ldrb	r3, [r4, #0]
 80002c6:	3301      	adds	r3, #1
 80002c8:	b2db      	uxtb	r3, r3
 80002ca:	2b0c      	cmp	r3, #12
 80002cc:	7023      	strb	r3, [r4, #0]
 80002ce:	d10f      	bne.n	80002f0 <driveISR()+0x30>
 80002d0:	480d      	ldr	r0, [pc, #52]	; (8000308 <driveISR()+0x48>)
 80002d2:	f005 fddb 	bl	8005e8c <mbed::Timer::stop()>
 80002d6:	2300      	movs	r3, #0
 80002d8:	480b      	ldr	r0, [pc, #44]	; (8000308 <driveISR()+0x48>)
 80002da:	7023      	strb	r3, [r4, #0]
 80002dc:	f005 fde6 	bl	8005eac <mbed::Timer::read_us()>
 80002e0:	4b0a      	ldr	r3, [pc, #40]	; (800030c <driveISR()+0x4c>)
 80002e2:	6018      	str	r0, [r3, #0]
 80002e4:	4808      	ldr	r0, [pc, #32]	; (8000308 <driveISR()+0x48>)
 80002e6:	f005 fdf6 	bl	8005ed6 <mbed::Timer::reset()>
 80002ea:	4807      	ldr	r0, [pc, #28]	; (8000308 <driveISR()+0x48>)
 80002ec:	f005 fdaf 	bl	8005e4e <mbed::Timer::start()>
 80002f0:	4b07      	ldr	r3, [pc, #28]	; (8000310 <driveISR()+0x50>)
 80002f2:	781a      	ldrb	r2, [r3, #0]
 80002f4:	2a01      	cmp	r2, #1
 80002f6:	d104      	bne.n	8000302 <driveISR()+0x42>
 80002f8:	4a06      	ldr	r2, [pc, #24]	; (8000314 <driveISR()+0x54>)
 80002fa:	4907      	ldr	r1, [pc, #28]	; (8000318 <driveISR()+0x58>)
 80002fc:	6011      	str	r1, [r2, #0]
 80002fe:	2200      	movs	r2, #0
 8000300:	701a      	strb	r2, [r3, #0]
 8000302:	bd10      	pop	{r4, pc}
 8000304:	20000784 	.word	0x20000784
 8000308:	2000078c 	.word	0x2000078c
 800030c:	2000017c 	.word	0x2000017c
 8000310:	20000004 	.word	0x20000004
 8000314:	20000de4 	.word	0x20000de4
 8000318:	437a0000 	.word	0x437a0000

0800031c <motorOut()>:
 800031c:	4b16      	ldr	r3, [pc, #88]	; (8000378 <motorOut()+0x5c>)
 800031e:	681a      	ldr	r2, [r3, #0]
 8000320:	2a01      	cmp	r2, #1
 8000322:	b510      	push	{r4, lr}
 8000324:	d00a      	beq.n	800033c <motorOut()+0x20>
 8000326:	d302      	bcc.n	800032e <motorOut()+0x12>
 8000328:	2a02      	cmp	r2, #2
 800032a:	d019      	beq.n	8000360 <motorOut()+0x44>
 800032c:	bd10      	pop	{r4, pc}
 800032e:	4b13      	ldr	r3, [pc, #76]	; (800037c <motorOut()+0x60>)
 8000330:	68da      	ldr	r2, [r3, #12]
 8000332:	681b      	ldr	r3, [r3, #0]
 8000334:	6013      	str	r3, [r2, #0]
 8000336:	4b12      	ldr	r3, [pc, #72]	; (8000380 <motorOut()+0x64>)
 8000338:	68da      	ldr	r2, [r3, #12]
 800033a:	e00e      	b.n	800035a <motorOut()+0x3e>
 800033c:	685c      	ldr	r4, [r3, #4]
 800033e:	f001 fc89 	bl	8001c54 <core_util_critical_section_enter>
 8000342:	4621      	mov	r1, r4
 8000344:	480f      	ldr	r0, [pc, #60]	; (8000384 <motorOut()+0x68>)
 8000346:	f003 feb5 	bl	80040b4 <pwmout_pulsewidth_us>
 800034a:	f001 fc99 	bl	8001c80 <core_util_critical_section_exit>
 800034e:	4b0b      	ldr	r3, [pc, #44]	; (800037c <motorOut()+0x60>)
 8000350:	68da      	ldr	r2, [r3, #12]
 8000352:	681b      	ldr	r3, [r3, #0]
 8000354:	6013      	str	r3, [r2, #0]
 8000356:	4b0a      	ldr	r3, [pc, #40]	; (8000380 <motorOut()+0x64>)
 8000358:	689a      	ldr	r2, [r3, #8]
 800035a:	681b      	ldr	r3, [r3, #0]
 800035c:	6013      	str	r3, [r2, #0]
 800035e:	bd10      	pop	{r4, pc}
 8000360:	685c      	ldr	r4, [r3, #4]
 8000362:	f001 fc77 	bl	8001c54 <core_util_critical_section_enter>
 8000366:	4621      	mov	r1, r4
 8000368:	4806      	ldr	r0, [pc, #24]	; (8000384 <motorOut()+0x68>)
 800036a:	f003 fea3 	bl	80040b4 <pwmout_pulsewidth_us>
 800036e:	f001 fc87 	bl	8001c80 <core_util_critical_section_exit>
 8000372:	4b02      	ldr	r3, [pc, #8]	; (800037c <motorOut()+0x60>)
 8000374:	689a      	ldr	r2, [r3, #8]
 8000376:	e7dc      	b.n	8000332 <motorOut()+0x16>
 8000378:	200001c0 	.word	0x200001c0
 800037c:	20000184 	.word	0x20000184
 8000380:	200001a0 	.word	0x200001a0
 8000384:	20000164 	.word	0x20000164

08000388 <PID_output()>:
 8000388:	e92d 41f0 	stmdb	sp!, {r4, r5, r6, r7, r8, lr}
 800038c:	4b5a      	ldr	r3, [pc, #360]	; (80004f8 <PID_output()+0x170>)
 800038e:	4c5b      	ldr	r4, [pc, #364]	; (80004fc <PID_output()+0x174>)
 8000390:	ed2d 8b04 	vpush	{d8-d9}
 8000394:	ed93 8a00 	vldr	s16, [r3]
 8000398:	4b59      	ldr	r3, [pc, #356]	; (8000500 <PID_output()+0x178>)
 800039a:	6818      	ldr	r0, [r3, #0]
 800039c:	f006 fa9c 	bl	80068d8 <__aeabi_ui2d>
 80003a0:	a351      	add	r3, pc, #324	; (adr r3, 80004e8 <PID_output()+0x160>)
 80003a2:	e9d3 2300 	ldrd	r2, r3, [r3]
 80003a6:	f006 fb0d 	bl	80069c4 <__aeabi_dmul>
 80003aa:	4602      	mov	r2, r0
 80003ac:	460b      	mov	r3, r1
 80003ae:	2000      	movs	r0, #0
 80003b0:	4954      	ldr	r1, [pc, #336]	; (8000504 <PID_output()+0x17c>)
 80003b2:	f006 fc31 	bl	8006c18 <__aeabi_ddiv>
 80003b6:	f006 fdbf 	bl	8006f38 <__aeabi_d2f>
 80003ba:	ee07 0a90 	vmov	s15, r0
 80003be:	4a52      	ldr	r2, [pc, #328]	; (8000508 <PID_output()+0x180>)
 80003c0:	ed94 7a00 	vldr	s14, [r4]
 80003c4:	4851      	ldr	r0, [pc, #324]	; (800050c <PID_output()+0x184>)
 80003c6:	4b52      	ldr	r3, [pc, #328]	; (8000510 <PID_output()+0x188>)
 80003c8:	ee78 7a67 	vsub.f32	s15, s16, s15
 80003cc:	edc2 7a00 	vstr	s15, [r2]
 80003d0:	edd2 7a00 	vldr	s15, [r2]
 80003d4:	ee77 7ac7 	vsub.f32	s15, s15, s14
 80003d8:	edc0 7a00 	vstr	s15, [r0]
 80003dc:	edd2 7a00 	vldr	s15, [r2]
 80003e0:	6819      	ldr	r1, [r3, #0]
 80003e2:	eefc 7ae7 	vcvt.u32.f32	s15, s15
 80003e6:	ee17 5a90 	vmov	r5, s15
 80003ea:	440d      	add	r5, r1
 80003ec:	601d      	str	r5, [r3, #0]
 80003ee:	6819      	ldr	r1, [r3, #0]
 80003f0:	f511 7f7a 	cmn.w	r1, #1000	; 0x3e8
 80003f4:	bf3c      	itt	cc
 80003f6:	4947      	ldrcc	r1, [pc, #284]	; (8000514 <PID_output()+0x18c>)
 80003f8:	6019      	strcc	r1, [r3, #0]
 80003fa:	6819      	ldr	r1, [r3, #0]
 80003fc:	f5b1 7f7a 	cmp.w	r1, #1000	; 0x3e8
 8000400:	bf84      	itt	hi
 8000402:	f44f 717a 	movhi.w	r1, #1000	; 0x3e8
 8000406:	6019      	strhi	r1, [r3, #0]
 8000408:	6811      	ldr	r1, [r2, #0]
 800040a:	ed92 7a00 	vldr	s14, [r2]
 800040e:	4a42      	ldr	r2, [pc, #264]	; (8000518 <PID_output()+0x190>)
 8000410:	6021      	str	r1, [r4, #0]
 8000412:	edd2 7a00 	vldr	s15, [r2]
 8000416:	4a41      	ldr	r2, [pc, #260]	; (800051c <PID_output()+0x194>)
 8000418:	ed90 9a00 	vldr	s18, [r0]
 800041c:	edd2 8a00 	vldr	s17, [r2]
 8000420:	681d      	ldr	r5, [r3, #0]
 8000422:	4b3f      	ldr	r3, [pc, #252]	; (8000520 <PID_output()+0x198>)
 8000424:	4c3f      	ldr	r4, [pc, #252]	; (8000524 <PID_output()+0x19c>)
 8000426:	ed93 8a00 	vldr	s16, [r3]
 800042a:	f8d4 8000 	ldr.w	r8, [r4]
 800042e:	ee67 7a27 	vmul.f32	s15, s14, s15
 8000432:	ee17 0a90 	vmov	r0, s15
 8000436:	f006 fa71 	bl	800691c <__aeabi_f2d>
 800043a:	a32d      	add	r3, pc, #180	; (adr r3, 80004f0 <PID_output()+0x168>)
 800043c:	e9d3 2300 	ldrd	r2, r3, [r3]
 8000440:	f006 fac0 	bl	80069c4 <__aeabi_dmul>
 8000444:	ee69 7a28 	vmul.f32	s15, s18, s17
 8000448:	4606      	mov	r6, r0
 800044a:	ee17 0a90 	vmov	r0, s15
 800044e:	460f      	mov	r7, r1
 8000450:	f006 fa64 	bl	800691c <__aeabi_f2d>
 8000454:	a326      	add	r3, pc, #152	; (adr r3, 80004f0 <PID_output()+0x168>)
 8000456:	e9d3 2300 	ldrd	r2, r3, [r3]
 800045a:	f006 fab3 	bl	80069c4 <__aeabi_dmul>
 800045e:	4602      	mov	r2, r0
 8000460:	460b      	mov	r3, r1
 8000462:	4630      	mov	r0, r6
 8000464:	4639      	mov	r1, r7
 8000466:	f006 f8fb 	bl	8006660 <__adddf3>
 800046a:	ee07 5a90 	vmov	s15, r5
 800046e:	eef8 7a67 	vcvt.f32.u32	s15, s15
 8000472:	4606      	mov	r6, r0
 8000474:	ee67 7a88 	vmul.f32	s15, s15, s16
 8000478:	460f      	mov	r7, r1
 800047a:	ee17 0a90 	vmov	r0, s15
 800047e:	f006 fa4d 	bl	800691c <__aeabi_f2d>
 8000482:	a319      	add	r3, pc, #100	; (adr r3, 80004e8 <PID_output()+0x160>)
 8000484:	e9d3 2300 	ldrd	r2, r3, [r3]
 8000488:	f006 fa9c 	bl	80069c4 <__aeabi_dmul>
 800048c:	4602      	mov	r2, r0
 800048e:	460b      	mov	r3, r1
 8000490:	4630      	mov	r0, r6
 8000492:	4639      	mov	r1, r7
 8000494:	f006 f8e4 	bl	8006660 <__adddf3>
 8000498:	4606      	mov	r6, r0
 800049a:	4640      	mov	r0, r8
 800049c:	460f      	mov	r7, r1
 800049e:	f006 fa3d 	bl	800691c <__aeabi_f2d>
 80004a2:	460b      	mov	r3, r1
 80004a4:	4602      	mov	r2, r0
 80004a6:	4639      	mov	r1, r7
 80004a8:	4630      	mov	r0, r6
 80004aa:	f006 f8d9 	bl	8006660 <__adddf3>
 80004ae:	f006 fd43 	bl	8006f38 <__aeabi_d2f>
 80004b2:	6020      	str	r0, [r4, #0]
 80004b4:	ed94 7a00 	vldr	s14, [r4]
 80004b8:	eddf 7a1b 	vldr	s15, [pc, #108]	; 8000528 <PID_output()+0x1a0>
 80004bc:	eeb4 7ae7 	vcmpe.f32	s14, s15
 80004c0:	eef1 fa10 	vmrs	APSR_nzcv, fpscr
 80004c4:	bfc8      	it	gt
 80004c6:	edc4 7a00 	vstrgt	s15, [r4]
 80004ca:	edd4 7a00 	vldr	s15, [r4]
 80004ce:	ecbd 8b04 	vpop	{d8-d9}
 80004d2:	eef5 7ac0 	vcmpe.f32	s15, #0.0
 80004d6:	eef1 fa10 	vmrs	APSR_nzcv, fpscr
 80004da:	bf44      	itt	mi
 80004dc:	2300      	movmi	r3, #0
 80004de:	6023      	strmi	r3, [r4, #0]
 80004e0:	e8bd 81f0 	ldmia.w	sp!, {r4, r5, r6, r7, r8, pc}
 80004e4:	f3af 8000 	nop.w
 80004e8:	a0b5ed8d 	.word	0xa0b5ed8d
 80004ec:	3eb0c6f7 	.word	0x3eb0c6f7
 80004f0:	d2f1a9fc 	.word	0xd2f1a9fc
 80004f4:	3f50624d 	.word	0x3f50624d
 80004f8:	20000de4 	.word	0x20000de4
 80004fc:	2000077c 	.word	0x2000077c
 8000500:	2000017c 	.word	0x2000017c
 8000504:	3ff00000 	.word	0x3ff00000
 8000508:	20000780 	.word	0x20000780
 800050c:	20000180 	.word	0x20000180
 8000510:	200001bc 	.word	0x200001bc
 8000514:	fffffc18 	.word	0xfffffc18
 8000518:	200007f0 	.word	0x200007f0
 800051c:	200007e8 	.word	0x200007e8
 8000520:	200007ec 	.word	0x200007ec
 8000524:	20000788 	.word	0x20000788
 8000528:	44fa0000 	.word	0x44fa0000

0800052c <motorHome()>:
 800052c:	b510      	push	{r4, lr}
 800052e:	4c0d      	ldr	r4, [pc, #52]	; (8000564 <motorHome()+0x38>)
 8000530:	f001 fb90 	bl	8001c54 <core_util_critical_section_enter>
 8000534:	f44f 61fa 	mov.w	r1, #2000	; 0x7d0
 8000538:	4620      	mov	r0, r4
 800053a:	f003 fcb1 	bl	8003ea0 <pwmout_period_us>
 800053e:	f001 fb9f 	bl	8001c80 <core_util_critical_section_exit>
 8000542:	f001 fb87 	bl	8001c54 <core_util_critical_section_enter>
 8000546:	f44f 61c8 	mov.w	r1, #1600	; 0x640
 800054a:	4620      	mov	r0, r4
 800054c:	f003 fdc0 	bl	80040d0 <pwmout_pulsewidth_ms>
 8000550:	f001 fb96 	bl	8001c80 <core_util_critical_section_exit>
 8000554:	4b04      	ldr	r3, [pc, #16]	; (8000568 <motorHome()+0x3c>)
 8000556:	2201      	movs	r2, #1
 8000558:	601a      	str	r2, [r3, #0]
 800055a:	4b04      	ldr	r3, [pc, #16]	; (800056c <motorHome()+0x40>)
 800055c:	4a04      	ldr	r2, [pc, #16]	; (8000570 <motorHome()+0x44>)
 800055e:	601a      	str	r2, [r3, #0]
 8000560:	bd10      	pop	{r4, pc}
 8000562:	bf00      	nop
 8000564:	20000164 	.word	0x20000164
 8000568:	20000dc4 	.word	0x20000dc4
 800056c:	20000788 	.word	0x20000788
 8000570:	44c80000 	.word	0x44c80000

08000574 <mbed::Callback<void ()>::~Callback()>:
 8000574:	68c3      	ldr	r3, [r0, #12]
 8000576:	b510      	push	{r4, lr}
 8000578:	4604      	mov	r4, r0
 800057a:	b10b      	cbz	r3, 8000580 <mbed::Callback<void ()>::~Callback()+0xc>
 800057c:	689b      	ldr	r3, [r3, #8]
 800057e:	4798      	blx	r3
 8000580:	4620      	mov	r0, r4
 8000582:	bd10      	pop	{r4, pc}

08000584 <mbed::Ticker::~Ticker()>:
 8000584:	b538      	push	{r3, r4, r5, lr}
 8000586:	4605      	mov	r5, r0
 8000588:	4b06      	ldr	r3, [pc, #24]	; (80005a4 <mbed::Ticker::~Ticker()+0x20>)
 800058a:	f845 3b18 	str.w	r3, [r5], #24
 800058e:	4604      	mov	r4, r0
 8000590:	f005 fab8 	bl	8005b04 <mbed::Ticker::detach()>
 8000594:	4628      	mov	r0, r5
 8000596:	f7ff ffed 	bl	8000574 <mbed::Callback<void ()>::~Callback()>
 800059a:	4620      	mov	r0, r4
 800059c:	f005 fcd8 	bl	8005f50 <mbed::TimerEvent::~TimerEvent()>
 80005a0:	4620      	mov	r0, r4
 80005a2:	bd38      	pop	{r3, r4, r5, pc}
 80005a4:	080087cc 	.word	0x080087cc

080005a8 <mbed::Ticker::~Ticker()>:
 80005a8:	b510      	push	{r4, lr}
 80005aa:	4604      	mov	r4, r0
 80005ac:	f7ff ffea 	bl	8000584 <mbed::Ticker::~Ticker()>
 80005b0:	4620      	mov	r0, r4
 80005b2:	f005 fe49 	bl	8006248 <operator delete(void*)>
 80005b6:	4620      	mov	r0, r4
 80005b8:	bd10      	pop	{r4, pc}
	...

080005bc <ISRHallSensor()>:
 80005bc:	b5f0      	push	{r4, r5, r6, r7, lr}
 80005be:	4f15      	ldr	r7, [pc, #84]	; (8000614 <ISRHallSensor()+0x58>)
 80005c0:	4d15      	ldr	r5, [pc, #84]	; (8000618 <ISRHallSensor()+0x5c>)
 80005c2:	4c16      	ldr	r4, [pc, #88]	; (800061c <ISRHallSensor()+0x60>)
 80005c4:	4e16      	ldr	r6, [pc, #88]	; (8000620 <ISRHallSensor()+0x64>)
 80005c6:	b085      	sub	sp, #20
 80005c8:	4669      	mov	r1, sp
 80005ca:	4638      	mov	r0, r7
 80005cc:	9500      	str	r5, [sp, #0]
 80005ce:	9403      	str	r4, [sp, #12]
 80005d0:	f005 fbe2 	bl	8005d98 <mbed::InterruptIn::rise(mbed::Callback<void ()>)>
 80005d4:	4668      	mov	r0, sp
 80005d6:	f7ff ffcd 	bl	8000574 <mbed::Callback<void ()>::~Callback()>
 80005da:	4669      	mov	r1, sp
 80005dc:	4630      	mov	r0, r6
 80005de:	9500      	str	r5, [sp, #0]
 80005e0:	9403      	str	r4, [sp, #12]
 80005e2:	f005 fbd9 	bl	8005d98 <mbed::InterruptIn::rise(mbed::Callback<void ()>)>
 80005e6:	4668      	mov	r0, sp
 80005e8:	f7ff ffc4 	bl	8000574 <mbed::Callback<void ()>::~Callback()>
 80005ec:	4669      	mov	r1, sp
 80005ee:	4638      	mov	r0, r7
 80005f0:	9500      	str	r5, [sp, #0]
 80005f2:	9403      	str	r4, [sp, #12]
 80005f4:	f005 fbf6 	bl	8005de4 <mbed::InterruptIn::fall(mbed::Callback<void ()>)>
 80005f8:	4668      	mov	r0, sp
 80005fa:	f7ff ffbb 	bl	8000574 <mbed::Callback<void ()>::~Callback()>
 80005fe:	4669      	mov	r1, sp
 8000600:	4630      	mov	r0, r6
 8000602:	9500      	str	r5, [sp, #0]
 8000604:	9403      	str	r4, [sp, #12]
 8000606:	f005 fbed 	bl	8005de4 <mbed::InterruptIn::fall(mbed::Callback<void ()>)>
 800060a:	4668      	mov	r0, sp
 800060c:	f7ff ffb2 	bl	8000574 <mbed::Callback<void ()>::~Callback()>
 8000610:	b005      	add	sp, #20
 8000612:	bdf0      	pop	{r4, r5, r6, r7, pc}
 8000614:	20000114 	.word	0x20000114
 8000618:	080002c1 	.word	0x080002c1
 800061c:	08008120 	.word	0x08008120
 8000620:	200000c4 	.word	0x200000c4

08000624 <mbed::Callback<void ()>::Callback(mbed::Callback<void ()> const&)>:
 8000624:	b538      	push	{r3, r4, r5, lr}
 8000626:	68cb      	ldr	r3, [r1, #12]
 8000628:	4604      	mov	r4, r0
 800062a:	460d      	mov	r5, r1
 800062c:	b10b      	cbz	r3, 8000632 <mbed::Callback<void ()>::Callback(mbed::Callback<void ()> const&)+0xe>
 800062e:	685b      	ldr	r3, [r3, #4]
 8000630:	4798      	blx	r3
 8000632:	68eb      	ldr	r3, [r5, #12]
 8000634:	60e3      	str	r3, [r4, #12]
 8000636:	4620      	mov	r0, r4
 8000638:	bd38      	pop	{r3, r4, r5, pc}

0800063a <mbed::Callback<void ()>::operator=(mbed::Callback<void ()> const&)>:
 800063a:	4288      	cmp	r0, r1
 800063c:	b538      	push	{r3, r4, r5, lr}
 800063e:	4604      	mov	r4, r0
 8000640:	460d      	mov	r5, r1
 8000642:	d006      	beq.n	8000652 <mbed::Callback<void ()>::operator=(mbed::Callback<void ()> const&)+0x18>
 8000644:	f7ff ff96 	bl	8000574 <mbed::Callback<void ()>::~Callback()>
 8000648:	b11c      	cbz	r4, 8000652 <mbed::Callback<void ()>::operator=(mbed::Callback<void ()> const&)+0x18>
 800064a:	4629      	mov	r1, r5
 800064c:	4620      	mov	r0, r4
 800064e:	f7ff ffe9 	bl	8000624 <mbed::Callback<void ()>::Callback(mbed::Callback<void ()> const&)>
 8000652:	4620      	mov	r0, r4
 8000654:	bd38      	pop	{r3, r4, r5, pc}
	...

08000658 <control()>:
 8000658:	b580      	push	{r7, lr}
 800065a:	4b2a      	ldr	r3, [pc, #168]	; (8000704 <control()+0xac>)
 800065c:	4a2a      	ldr	r2, [pc, #168]	; (8000708 <control()+0xb0>)
 800065e:	601a      	str	r2, [r3, #0]
 8000660:	4b2a      	ldr	r3, [pc, #168]	; (800070c <control()+0xb4>)
 8000662:	4a2b      	ldr	r2, [pc, #172]	; (8000710 <control()+0xb8>)
 8000664:	601a      	str	r2, [r3, #0]
 8000666:	4b2b      	ldr	r3, [pc, #172]	; (8000714 <control()+0xbc>)
 8000668:	4c2b      	ldr	r4, [pc, #172]	; (8000718 <control()+0xc0>)
 800066a:	4d2c      	ldr	r5, [pc, #176]	; (800071c <control()+0xc4>)
 800066c:	b088      	sub	sp, #32
 800066e:	2200      	movs	r2, #0
 8000670:	601a      	str	r2, [r3, #0]
 8000672:	f7ff ff5b 	bl	800052c <motorHome()>
 8000676:	f7ff ffa1 	bl	80005bc <ISRHallSensor()>
 800067a:	4b29      	ldr	r3, [pc, #164]	; (8000720 <control()+0xc8>)
 800067c:	9300      	str	r3, [sp, #0]
 800067e:	4669      	mov	r1, sp
 8000680:	a804      	add	r0, sp, #16
 8000682:	9403      	str	r4, [sp, #12]
 8000684:	f7ff ffce 	bl	8000624 <mbed::Callback<void ()>::Callback(mbed::Callback<void ()> const&)>
 8000688:	a904      	add	r1, sp, #16
 800068a:	4826      	ldr	r0, [pc, #152]	; (8000724 <control()+0xcc>)
 800068c:	f7ff ffd5 	bl	800063a <mbed::Callback<void ()>::operator=(mbed::Callback<void ()> const&)>
 8000690:	4925      	ldr	r1, [pc, #148]	; (8000728 <control()+0xd0>)
 8000692:	4826      	ldr	r0, [pc, #152]	; (800072c <control()+0xd4>)
 8000694:	f005 fa22 	bl	8005adc <mbed::Ticker::setup(unsigned long)>
 8000698:	a804      	add	r0, sp, #16
 800069a:	f7ff ff6b 	bl	8000574 <mbed::Callback<void ()>::~Callback()>
 800069e:	4668      	mov	r0, sp
 80006a0:	f7ff ff68 	bl	8000574 <mbed::Callback<void ()>::~Callback()>
 80006a4:	4b22      	ldr	r3, [pc, #136]	; (8000730 <control()+0xd8>)
 80006a6:	481f      	ldr	r0, [pc, #124]	; (8000724 <control()+0xcc>)
 80006a8:	9304      	str	r3, [sp, #16]
 80006aa:	a904      	add	r1, sp, #16
 80006ac:	9407      	str	r4, [sp, #28]
 80006ae:	f7ff ffc4 	bl	800063a <mbed::Callback<void ()>::operator=(mbed::Callback<void ()> const&)>
 80006b2:	2164      	movs	r1, #100	; 0x64
 80006b4:	481d      	ldr	r0, [pc, #116]	; (800072c <control()+0xd4>)
 80006b6:	4c1f      	ldr	r4, [pc, #124]	; (8000734 <control()+0xdc>)
 80006b8:	f005 fa10 	bl	8005adc <mbed::Ticker::setup(unsigned long)>
 80006bc:	a804      	add	r0, sp, #16
 80006be:	f7ff ff59 	bl	8000574 <mbed::Callback<void ()>::~Callback()>
 80006c2:	2600      	movs	r6, #0
 80006c4:	2700      	movs	r7, #0
 80006c6:	f04f 32ff 	mov.w	r2, #4294967295	; 0xffffffff
 80006ca:	2101      	movs	r1, #1
 80006cc:	a804      	add	r0, sp, #16
 80006ce:	f005 fe0a 	bl	80062e6 <rtos::Thread::signal_wait(long, unsigned long)>
 80006d2:	6820      	ldr	r0, [r4, #0]
 80006d4:	f006 f900 	bl	80068d8 <__aeabi_ui2d>
 80006d8:	4632      	mov	r2, r6
 80006da:	463b      	mov	r3, r7
 80006dc:	f006 fbda 	bl	8006e94 <__aeabi_dcmpeq>
 80006e0:	b108      	cbz	r0, 80006e6 <control()+0x8e>
 80006e2:	2301      	movs	r3, #1
 80006e4:	6023      	str	r3, [r4, #0]
 80006e6:	4b14      	ldr	r3, [pc, #80]	; (8000738 <control()+0xe0>)
 80006e8:	682a      	ldr	r2, [r5, #0]
 80006ea:	601a      	str	r2, [r3, #0]
 80006ec:	4a13      	ldr	r2, [pc, #76]	; (800073c <control()+0xe4>)
 80006ee:	edd2 7a00 	vldr	s15, [r2]
 80006f2:	eefc 7ae7 	vcvt.u32.f32	s15, s15
 80006f6:	edc3 7a01 	vstr	s15, [r3, #4]
 80006fa:	f7ff fe0f 	bl	800031c <motorOut()>
 80006fe:	f7ff fe43 	bl	8000388 <PID_output()>
 8000702:	e7e0      	b.n	80006c6 <control()+0x6e>
 8000704:	200007f0 	.word	0x200007f0
 8000708:	420c0000 	.word	0x420c0000
 800070c:	200007e8 	.word	0x200007e8
 8000710:	42700000 	.word	0x42700000
 8000714:	200007ec 	.word	0x200007ec
 8000718:	08008120 	.word	0x08008120
 800071c:	20000dc4 	.word	0x20000dc4
 8000720:	0800029d 	.word	0x0800029d
 8000724:	200007b4 	.word	0x200007b4
 8000728:	000f4240 	.word	0x000f4240
 800072c:	2000079c 	.word	0x2000079c
 8000730:	080002b5 	.word	0x080002b5
 8000734:	2000017c 	.word	0x2000017c
 8000738:	200001c0 	.word	0x200001c0
 800073c:	20000788 	.word	0x20000788

08000740 <void ros::Msg::varToArr<unsigned char*, unsigned long>(unsigned char*, unsigned long)>:
 8000740:	3801      	subs	r0, #1
 8000742:	2300      	movs	r3, #0
 8000744:	fa21 f203 	lsr.w	r2, r1, r3
 8000748:	3308      	adds	r3, #8
 800074a:	2b20      	cmp	r3, #32
 800074c:	f800 2f01 	strb.w	r2, [r0, #1]!
 8000750:	d1f8      	bne.n	8000744 <void ros::Msg::varToArr<unsigned char*, unsigned long>(unsigned char*, unsigned long)+0x4>
 8000752:	4770      	bx	lr

08000754 <rosserial_msgs::TopicInfo::serialize(unsigned char*) const>:
 8000754:	8883      	ldrh	r3, [r0, #4]
 8000756:	e92d 41f0 	stmdb	sp!, {r4, r5, r6, r7, r8, lr}
 800075a:	700b      	strb	r3, [r1, #0]
 800075c:	8883      	ldrh	r3, [r0, #4]
 800075e:	0a1b      	lsrs	r3, r3, #8
 8000760:	704b      	strb	r3, [r1, #1]
 8000762:	4605      	mov	r5, r0
 8000764:	6880      	ldr	r0, [r0, #8]
 8000766:	460c      	mov	r4, r1
 8000768:	f007 facb 	bl	8007d02 <strlen>
 800076c:	4607      	mov	r7, r0
 800076e:	4601      	mov	r1, r0
 8000770:	1ca0      	adds	r0, r4, #2
 8000772:	f7ff ffe5 	bl	8000740 <void ros::Msg::varToArr<unsigned char*, unsigned long>(unsigned char*, unsigned long)>
 8000776:	463a      	mov	r2, r7
 8000778:	68a9      	ldr	r1, [r5, #8]
 800077a:	1da0      	adds	r0, r4, #6
 800077c:	f006 ffd0 	bl	8007720 <memcpy>
 8000780:	68e8      	ldr	r0, [r5, #12]
 8000782:	f007 fabe 	bl	8007d02 <strlen>
 8000786:	f107 0806 	add.w	r8, r7, #6
 800078a:	4606      	mov	r6, r0
 800078c:	4601      	mov	r1, r0
 800078e:	370a      	adds	r7, #10
 8000790:	eb04 0008 	add.w	r0, r4, r8
 8000794:	f7ff ffd4 	bl	8000740 <void ros::Msg::varToArr<unsigned char*, unsigned long>(unsigned char*, unsigned long)>
 8000798:	4632      	mov	r2, r6
 800079a:	68e9      	ldr	r1, [r5, #12]
 800079c:	19e0      	adds	r0, r4, r7
 800079e:	f006 ffbf 	bl	8007720 <memcpy>
 80007a2:	6928      	ldr	r0, [r5, #16]
 80007a4:	f007 faad 	bl	8007d02 <strlen>
 80007a8:	443e      	add	r6, r7
 80007aa:	4601      	mov	r1, r0
 80007ac:	4607      	mov	r7, r0
 80007ae:	19a0      	adds	r0, r4, r6
 80007b0:	3604      	adds	r6, #4
 80007b2:	f7ff ffc5 	bl	8000740 <void ros::Msg::varToArr<unsigned char*, unsigned long>(unsigned char*, unsigned long)>
 80007b6:	463a      	mov	r2, r7
 80007b8:	19a0      	adds	r0, r4, r6
 80007ba:	6929      	ldr	r1, [r5, #16]
 80007bc:	443e      	add	r6, r7
 80007be:	f006 ffaf 	bl	8007720 <memcpy>
 80007c2:	696b      	ldr	r3, [r5, #20]
 80007c4:	55a3      	strb	r3, [r4, r6]
 80007c6:	4434      	add	r4, r6
 80007c8:	0a1a      	lsrs	r2, r3, #8
 80007ca:	7062      	strb	r2, [r4, #1]
 80007cc:	0c1a      	lsrs	r2, r3, #16
 80007ce:	0e1b      	lsrs	r3, r3, #24
 80007d0:	70a2      	strb	r2, [r4, #2]
 80007d2:	70e3      	strb	r3, [r4, #3]
 80007d4:	1d30      	adds	r0, r6, #4
 80007d6:	e8bd 81f0 	ldmia.w	sp!, {r4, r5, r6, r7, r8, pc}

080007da <rosserial_msgs::RequestParamResponse::serialize(unsigned char*) const>:
 80007da:	6843      	ldr	r3, [r0, #4]
 80007dc:	e92d 41f0 	stmdb	sp!, {r4, r5, r6, r7, r8, lr}
 80007e0:	700b      	strb	r3, [r1, #0]
 80007e2:	6843      	ldr	r3, [r0, #4]
 80007e4:	0a1b      	lsrs	r3, r3, #8
 80007e6:	704b      	strb	r3, [r1, #1]
 80007e8:	88c3      	ldrh	r3, [r0, #6]
 80007ea:	708b      	strb	r3, [r1, #2]
 80007ec:	79c3      	ldrb	r3, [r0, #7]
 80007ee:	70cb      	strb	r3, [r1, #3]
 80007f0:	460d      	mov	r5, r1
 80007f2:	1d0a      	adds	r2, r1, #4
 80007f4:	4604      	mov	r4, r0
 80007f6:	2100      	movs	r1, #0
 80007f8:	6860      	ldr	r0, [r4, #4]
 80007fa:	4281      	cmp	r1, r0
 80007fc:	eba2 0305 	sub.w	r3, r2, r5
 8000800:	f102 0204 	add.w	r2, r2, #4
 8000804:	d20f      	bcs.n	8000826 <rosserial_msgs::RequestParamResponse::serialize(unsigned char*) const+0x4c>
 8000806:	68e3      	ldr	r3, [r4, #12]
 8000808:	f853 3021 	ldr.w	r3, [r3, r1, lsl #2]
 800080c:	f802 3c04 	strb.w	r3, [r2, #-4]
 8000810:	0a18      	lsrs	r0, r3, #8
 8000812:	f802 0c03 	strb.w	r0, [r2, #-3]
 8000816:	0c18      	lsrs	r0, r3, #16
 8000818:	0e1b      	lsrs	r3, r3, #24
 800081a:	f802 0c02 	strb.w	r0, [r2, #-2]
 800081e:	f802 3c01 	strb.w	r3, [r2, #-1]
 8000822:	3101      	adds	r1, #1
 8000824:	e7e8      	b.n	80007f8 <rosserial_msgs::RequestParamResponse::serialize(unsigned char*) const+0x1e>
 8000826:	6922      	ldr	r2, [r4, #16]
 8000828:	54ea      	strb	r2, [r5, r3]
 800082a:	6921      	ldr	r1, [r4, #16]
 800082c:	18ea      	adds	r2, r5, r3
 800082e:	0a09      	lsrs	r1, r1, #8
 8000830:	7051      	strb	r1, [r2, #1]
 8000832:	8a61      	ldrh	r1, [r4, #18]
 8000834:	7091      	strb	r1, [r2, #2]
 8000836:	7ce1      	ldrb	r1, [r4, #19]
 8000838:	70d1      	strb	r1, [r2, #3]
 800083a:	3304      	adds	r3, #4
 800083c:	442b      	add	r3, r5
 800083e:	2100      	movs	r1, #0
 8000840:	6922      	ldr	r2, [r4, #16]
 8000842:	4291      	cmp	r1, r2
 8000844:	eba3 0605 	sub.w	r6, r3, r5
 8000848:	f103 0304 	add.w	r3, r3, #4
 800084c:	d20f      	bcs.n	800086e <rosserial_msgs::RequestParamResponse::serialize(unsigned char*) const+0x94>
 800084e:	69a2      	ldr	r2, [r4, #24]
 8000850:	f852 2021 	ldr.w	r2, [r2, r1, lsl #2]
 8000854:	f803 2c04 	strb.w	r2, [r3, #-4]
 8000858:	0a10      	lsrs	r0, r2, #8
 800085a:	f803 0c03 	strb.w	r0, [r3, #-3]
 800085e:	0c10      	lsrs	r0, r2, #16
 8000860:	0e12      	lsrs	r2, r2, #24
 8000862:	f803 0c02 	strb.w	r0, [r3, #-2]
 8000866:	f803 2c01 	strb.w	r2, [r3, #-1]
 800086a:	3101      	adds	r1, #1
 800086c:	e7e8      	b.n	8000840 <rosserial_msgs::RequestParamResponse::serialize(unsigned char*) const+0x66>
 800086e:	69e3      	ldr	r3, [r4, #28]
 8000870:	55ab      	strb	r3, [r5, r6]
 8000872:	69e2      	ldr	r2, [r4, #28]
 8000874:	19ab      	adds	r3, r5, r6
 8000876:	0a12      	lsrs	r2, r2, #8
 8000878:	705a      	strb	r2, [r3, #1]
 800087a:	8be2      	ldrh	r2, [r4, #30]
 800087c:	709a      	strb	r2, [r3, #2]
 800087e:	7fe2      	ldrb	r2, [r4, #31]
 8000880:	70da      	strb	r2, [r3, #3]
 8000882:	3604      	adds	r6, #4
 8000884:	2700      	movs	r7, #0
 8000886:	69e3      	ldr	r3, [r4, #28]
 8000888:	429f      	cmp	r7, r3
 800088a:	d214      	bcs.n	80008b6 <rosserial_msgs::RequestParamResponse::serialize(unsigned char*) const+0xdc>
 800088c:	6a63      	ldr	r3, [r4, #36]	; 0x24
 800088e:	f853 0027 	ldr.w	r0, [r3, r7, lsl #2]
 8000892:	f007 fa36 	bl	8007d02 <strlen>
 8000896:	4680      	mov	r8, r0
 8000898:	4601      	mov	r1, r0
 800089a:	19a8      	adds	r0, r5, r6
 800089c:	f7ff ff50 	bl	8000740 <void ros::Msg::varToArr<unsigned char*, unsigned long>(unsigned char*, unsigned long)>
 80008a0:	6a63      	ldr	r3, [r4, #36]	; 0x24
 80008a2:	3604      	adds	r6, #4
 80008a4:	f853 1027 	ldr.w	r1, [r3, r7, lsl #2]
 80008a8:	19a8      	adds	r0, r5, r6
 80008aa:	4642      	mov	r2, r8
 80008ac:	f006 ff38 	bl	8007720 <memcpy>
 80008b0:	4446      	add	r6, r8
 80008b2:	3701      	adds	r7, #1
 80008b4:	e7e7      	b.n	8000886 <rosserial_msgs::RequestParamResponse::serialize(unsigned char*) const+0xac>
 80008b6:	4630      	mov	r0, r6
 80008b8:	e8bd 81f0 	ldmia.w	sp!, {r4, r5, r6, r7, r8, pc}

080008bc <rosserial_msgs::Log::serialize(unsigned char*) const>:
 80008bc:	b5f8      	push	{r3, r4, r5, r6, r7, lr}
 80008be:	460e      	mov	r6, r1
 80008c0:	7903      	ldrb	r3, [r0, #4]
 80008c2:	f806 3b01 	strb.w	r3, [r6], #1
 80008c6:	4605      	mov	r5, r0
 80008c8:	6880      	ldr	r0, [r0, #8]
 80008ca:	460f      	mov	r7, r1
 80008cc:	f007 fa19 	bl	8007d02 <strlen>
 80008d0:	4604      	mov	r4, r0
 80008d2:	4601      	mov	r1, r0
 80008d4:	4630      	mov	r0, r6
 80008d6:	f7ff ff33 	bl	8000740 <void ros::Msg::varToArr<unsigned char*, unsigned long>(unsigned char*, unsigned long)>
 80008da:	4622      	mov	r2, r4
 80008dc:	68a9      	ldr	r1, [r5, #8]
 80008de:	1d78      	adds	r0, r7, #5
 80008e0:	f006 ff1e 	bl	8007720 <memcpy>
 80008e4:	1d60      	adds	r0, r4, #5
 80008e6:	bdf8      	pop	{r3, r4, r5, r6, r7, pc}

080008e8 <void ros::Msg::arrToVar<unsigned long, unsigned char*>(unsigned long&, unsigned char*)>:
 80008e8:	b510      	push	{r4, lr}
 80008ea:	2300      	movs	r3, #0
 80008ec:	6003      	str	r3, [r0, #0]
 80008ee:	3901      	subs	r1, #1
 80008f0:	f811 2f01 	ldrb.w	r2, [r1, #1]!
 80008f4:	fa02 f403 	lsl.w	r4, r2, r3
 80008f8:	6802      	ldr	r2, [r0, #0]
 80008fa:	3308      	adds	r3, #8
 80008fc:	4322      	orrs	r2, r4
 80008fe:	2b20      	cmp	r3, #32
 8000900:	6002      	str	r2, [r0, #0]
 8000902:	d1f5      	bne.n	80008f0 <void ros::Msg::arrToVar<unsigned long, unsigned char*>(unsigned long&, unsigned char*)+0x8>
 8000904:	bd10      	pop	{r4, pc}

08000906 <rosserial_msgs::TopicInfo::deserialize(unsigned char*)>:
 8000906:	b5f0      	push	{r4, r5, r6, r7, lr}
 8000908:	780b      	ldrb	r3, [r1, #0]
 800090a:	8083      	strh	r3, [r0, #4]
 800090c:	784a      	ldrb	r2, [r1, #1]
 800090e:	b085      	sub	sp, #20
 8000910:	ea43 2302 	orr.w	r3, r3, r2, lsl #8
 8000914:	8083      	strh	r3, [r0, #4]
 8000916:	460c      	mov	r4, r1
 8000918:	4606      	mov	r6, r0
 800091a:	3102      	adds	r1, #2
 800091c:	a801      	add	r0, sp, #4
 800091e:	f7ff ffe3 	bl	80008e8 <void ros::Msg::arrToVar<unsigned long, unsigned char*>(unsigned long&, unsigned char*)>
 8000922:	9f01      	ldr	r7, [sp, #4]
 8000924:	1da3      	adds	r3, r4, #6
 8000926:	1dbd      	adds	r5, r7, #6
 8000928:	1b1a      	subs	r2, r3, r4
 800092a:	4295      	cmp	r5, r2
 800092c:	d904      	bls.n	8000938 <rosserial_msgs::TopicInfo::deserialize(unsigned char*)+0x32>
 800092e:	f813 2b01 	ldrb.w	r2, [r3], #1
 8000932:	f803 2c02 	strb.w	r2, [r3, #-2]
 8000936:	e7f7      	b.n	8000928 <rosserial_msgs::TopicInfo::deserialize(unsigned char*)+0x22>
 8000938:	19e3      	adds	r3, r4, r7
 800093a:	2200      	movs	r2, #0
 800093c:	715a      	strb	r2, [r3, #5]
 800093e:	1d63      	adds	r3, r4, #5
 8000940:	60b3      	str	r3, [r6, #8]
 8000942:	1961      	adds	r1, r4, r5
 8000944:	a802      	add	r0, sp, #8
 8000946:	f7ff ffcf 	bl	80008e8 <void ros::Msg::arrToVar<unsigned long, unsigned char*>(unsigned long&, unsigned char*)>
 800094a:	1d2b      	adds	r3, r5, #4
 800094c:	9d02      	ldr	r5, [sp, #8]
 800094e:	f107 020a 	add.w	r2, r7, #10
 8000952:	441d      	add	r5, r3
 8000954:	4422      	add	r2, r4
 8000956:	1b11      	subs	r1, r2, r4
 8000958:	428d      	cmp	r5, r1
 800095a:	d904      	bls.n	8000966 <rosserial_msgs::TopicInfo::deserialize(unsigned char*)+0x60>
 800095c:	f812 1b01 	ldrb.w	r1, [r2], #1
 8000960:	f802 1c02 	strb.w	r1, [r2, #-2]
 8000964:	e7f7      	b.n	8000956 <rosserial_msgs::TopicInfo::deserialize(unsigned char*)+0x50>
 8000966:	1961      	adds	r1, r4, r5
 8000968:	3b01      	subs	r3, #1
 800096a:	4423      	add	r3, r4
 800096c:	2200      	movs	r2, #0
 800096e:	f801 2c01 	strb.w	r2, [r1, #-1]
 8000972:	a803      	add	r0, sp, #12
 8000974:	60f3      	str	r3, [r6, #12]
 8000976:	f7ff ffb7 	bl	80008e8 <void ros::Msg::arrToVar<unsigned long, unsigned char*>(unsigned long&, unsigned char*)>
 800097a:	9803      	ldr	r0, [sp, #12]
 800097c:	3504      	adds	r5, #4
 800097e:	4428      	add	r0, r5
 8000980:	1963      	adds	r3, r4, r5
 8000982:	1b1a      	subs	r2, r3, r4
 8000984:	4290      	cmp	r0, r2
 8000986:	d904      	bls.n	8000992 <rosserial_msgs::TopicInfo::deserialize(unsigned char*)+0x8c>
 8000988:	f813 2b01 	ldrb.w	r2, [r3], #1
 800098c:	f803 2c02 	strb.w	r2, [r3, #-2]
 8000990:	e7f7      	b.n	8000982 <rosserial_msgs::TopicInfo::deserialize(unsigned char*)+0x7c>
 8000992:	1822      	adds	r2, r4, r0
 8000994:	3d01      	subs	r5, #1
 8000996:	2300      	movs	r3, #0
 8000998:	4425      	add	r5, r4
 800099a:	f802 3c01 	strb.w	r3, [r2, #-1]
 800099e:	6135      	str	r5, [r6, #16]
 80009a0:	7893      	ldrb	r3, [r2, #2]
 80009a2:	7851      	ldrb	r1, [r2, #1]
 80009a4:	78d2      	ldrb	r2, [r2, #3]
 80009a6:	041b      	lsls	r3, r3, #16
 80009a8:	ea43 2301 	orr.w	r3, r3, r1, lsl #8
 80009ac:	5c21      	ldrb	r1, [r4, r0]
 80009ae:	430b      	orrs	r3, r1
 80009b0:	ea43 6302 	orr.w	r3, r3, r2, lsl #24
 80009b4:	3004      	adds	r0, #4
 80009b6:	6173      	str	r3, [r6, #20]
 80009b8:	b005      	add	sp, #20
 80009ba:	bdf0      	pop	{r4, r5, r6, r7, pc}

080009bc <rosserial_msgs::RequestParamResponse::deserialize(unsigned char*)>:
 80009bc:	e92d 41f3 	stmdb	sp!, {r0, r1, r4, r5, r6, r7, r8, lr}
 80009c0:	6843      	ldr	r3, [r0, #4]
 80009c2:	680d      	ldr	r5, [r1, #0]
 80009c4:	429d      	cmp	r5, r3
 80009c6:	4604      	mov	r4, r0
 80009c8:	460e      	mov	r6, r1
 80009ca:	d904      	bls.n	80009d6 <rosserial_msgs::RequestParamResponse::deserialize(unsigned char*)+0x1a>
 80009cc:	00a9      	lsls	r1, r5, #2
 80009ce:	68c0      	ldr	r0, [r0, #12]
 80009d0:	f007 f93c 	bl	8007c4c <realloc>
 80009d4:	60e0      	str	r0, [r4, #12]
 80009d6:	6065      	str	r5, [r4, #4]
 80009d8:	1d32      	adds	r2, r6, #4
 80009da:	2100      	movs	r1, #0
 80009dc:	6860      	ldr	r0, [r4, #4]
 80009de:	4281      	cmp	r1, r0
 80009e0:	eba2 0306 	sub.w	r3, r2, r6
 80009e4:	f102 0204 	add.w	r2, r2, #4
 80009e8:	d213      	bcs.n	8000a12 <rosserial_msgs::RequestParamResponse::deserialize(unsigned char*)+0x56>
 80009ea:	f812 3c02 	ldrb.w	r3, [r2, #-2]
 80009ee:	f812 0c03 	ldrb.w	r0, [r2, #-3]
 80009f2:	041b      	lsls	r3, r3, #16
 80009f4:	ea43 2300 	orr.w	r3, r3, r0, lsl #8
 80009f8:	f812 0c04 	ldrb.w	r0, [r2, #-4]
 80009fc:	4303      	orrs	r3, r0
 80009fe:	f812 0c01 	ldrb.w	r0, [r2, #-1]
 8000a02:	ea43 6300 	orr.w	r3, r3, r0, lsl #24
 8000a06:	68e0      	ldr	r0, [r4, #12]
 8000a08:	60a3      	str	r3, [r4, #8]
 8000a0a:	f840 3021 	str.w	r3, [r0, r1, lsl #2]
 8000a0e:	3101      	adds	r1, #1
 8000a10:	e7e4      	b.n	80009dc <rosserial_msgs::RequestParamResponse::deserialize(unsigned char*)+0x20>
 8000a12:	18f2      	adds	r2, r6, r3
 8000a14:	5cf1      	ldrb	r1, [r6, r3]
 8000a16:	7895      	ldrb	r5, [r2, #2]
 8000a18:	7850      	ldrb	r0, [r2, #1]
 8000a1a:	78d2      	ldrb	r2, [r2, #3]
 8000a1c:	042d      	lsls	r5, r5, #16
 8000a1e:	ea45 2500 	orr.w	r5, r5, r0, lsl #8
 8000a22:	430d      	orrs	r5, r1
 8000a24:	1d1f      	adds	r7, r3, #4
 8000a26:	6923      	ldr	r3, [r4, #16]
 8000a28:	ea45 6502 	orr.w	r5, r5, r2, lsl #24
 8000a2c:	429d      	cmp	r5, r3
 8000a2e:	d904      	bls.n	8000a3a <rosserial_msgs::RequestParamResponse::deserialize(unsigned char*)+0x7e>
 8000a30:	00a9      	lsls	r1, r5, #2
 8000a32:	69a0      	ldr	r0, [r4, #24]
 8000a34:	f007 f90a 	bl	8007c4c <realloc>
 8000a38:	61a0      	str	r0, [r4, #24]
 8000a3a:	6125      	str	r5, [r4, #16]
 8000a3c:	19f3      	adds	r3, r6, r7
 8000a3e:	2100      	movs	r1, #0
 8000a40:	6922      	ldr	r2, [r4, #16]
 8000a42:	4291      	cmp	r1, r2
 8000a44:	eba3 0506 	sub.w	r5, r3, r6
 8000a48:	f103 0304 	add.w	r3, r3, #4
 8000a4c:	d213      	bcs.n	8000a76 <rosserial_msgs::RequestParamResponse::deserialize(unsigned char*)+0xba>
 8000a4e:	f813 2c02 	ldrb.w	r2, [r3, #-2]
 8000a52:	f813 0c03 	ldrb.w	r0, [r3, #-3]
 8000a56:	0412      	lsls	r2, r2, #16
 8000a58:	ea42 2200 	orr.w	r2, r2, r0, lsl #8
 8000a5c:	f813 0c04 	ldrb.w	r0, [r3, #-4]
 8000a60:	4302      	orrs	r2, r0
 8000a62:	f813 0c01 	ldrb.w	r0, [r3, #-1]
 8000a66:	ea42 6200 	orr.w	r2, r2, r0, lsl #24
 8000a6a:	69a0      	ldr	r0, [r4, #24]
 8000a6c:	6162      	str	r2, [r4, #20]
 8000a6e:	f840 2021 	str.w	r2, [r0, r1, lsl #2]
 8000a72:	3101      	adds	r1, #1
 8000a74:	e7e4      	b.n	8000a40 <rosserial_msgs::RequestParamResponse::deserialize(unsigned char*)+0x84>
 8000a76:	1973      	adds	r3, r6, r5
 8000a78:	5d72      	ldrb	r2, [r6, r5]
 8000a7a:	789f      	ldrb	r7, [r3, #2]
 8000a7c:	7859      	ldrb	r1, [r3, #1]
 8000a7e:	78db      	ldrb	r3, [r3, #3]
 8000a80:	043f      	lsls	r7, r7, #16
 8000a82:	ea47 2701 	orr.w	r7, r7, r1, lsl #8
 8000a86:	4317      	orrs	r7, r2
 8000a88:	ea47 6703 	orr.w	r7, r7, r3, lsl #24
 8000a8c:	69e3      	ldr	r3, [r4, #28]
 8000a8e:	429f      	cmp	r7, r3
 8000a90:	f105 0504 	add.w	r5, r5, #4
 8000a94:	d904      	bls.n	8000aa0 <rosserial_msgs::RequestParamResponse::deserialize(unsigned char*)+0xe4>
 8000a96:	00b9      	lsls	r1, r7, #2
 8000a98:	6a60      	ldr	r0, [r4, #36]	; 0x24
 8000a9a:	f007 f8d7 	bl	8007c4c <realloc>
 8000a9e:	6260      	str	r0, [r4, #36]	; 0x24
 8000aa0:	61e7      	str	r7, [r4, #28]
 8000aa2:	2700      	movs	r7, #0
 8000aa4:	46b8      	mov	r8, r7
 8000aa6:	69e3      	ldr	r3, [r4, #28]
 8000aa8:	429f      	cmp	r7, r3
 8000aaa:	d21a      	bcs.n	8000ae2 <rosserial_msgs::RequestParamResponse::deserialize(unsigned char*)+0x126>
 8000aac:	1971      	adds	r1, r6, r5
 8000aae:	a801      	add	r0, sp, #4
 8000ab0:	f7ff ff1a 	bl	80008e8 <void ros::Msg::arrToVar<unsigned long, unsigned char*>(unsigned long&, unsigned char*)>
 8000ab4:	1d2b      	adds	r3, r5, #4
 8000ab6:	9d01      	ldr	r5, [sp, #4]
 8000ab8:	18f2      	adds	r2, r6, r3
 8000aba:	441d      	add	r5, r3
 8000abc:	1b91      	subs	r1, r2, r6
 8000abe:	42a9      	cmp	r1, r5
 8000ac0:	d204      	bcs.n	8000acc <rosserial_msgs::RequestParamResponse::deserialize(unsigned char*)+0x110>
 8000ac2:	f812 1b01 	ldrb.w	r1, [r2], #1
 8000ac6:	f802 1c02 	strb.w	r1, [r2, #-2]
 8000aca:	e7f7      	b.n	8000abc <rosserial_msgs::RequestParamResponse::deserialize(unsigned char*)+0x100>
 8000acc:	1972      	adds	r2, r6, r5
 8000ace:	3b01      	subs	r3, #1
 8000ad0:	f802 8c01 	strb.w	r8, [r2, #-1]
 8000ad4:	6a62      	ldr	r2, [r4, #36]	; 0x24
 8000ad6:	4433      	add	r3, r6
 8000ad8:	6223      	str	r3, [r4, #32]
 8000ada:	f842 3027 	str.w	r3, [r2, r7, lsl #2]
 8000ade:	3701      	adds	r7, #1
 8000ae0:	e7e1      	b.n	8000aa6 <rosserial_msgs::RequestParamResponse::deserialize(unsigned char*)+0xea>
 8000ae2:	4628      	mov	r0, r5
 8000ae4:	b002      	add	sp, #8
 8000ae6:	e8bd 81f0 	ldmia.w	sp!, {r4, r5, r6, r7, r8, pc}

08000aea <rosserial_msgs::Log::deserialize(unsigned char*)>:
 8000aea:	b537      	push	{r0, r1, r2, r4, r5, lr}
 8000aec:	460c      	mov	r4, r1
 8000aee:	f811 3b01 	ldrb.w	r3, [r1], #1
 8000af2:	7103      	strb	r3, [r0, #4]
 8000af4:	4605      	mov	r5, r0
 8000af6:	a801      	add	r0, sp, #4
 8000af8:	f7ff fef6 	bl	80008e8 <void ros::Msg::arrToVar<unsigned long, unsigned char*>(unsigned long&, unsigned char*)>
 8000afc:	9b01      	ldr	r3, [sp, #4]
 8000afe:	1d62      	adds	r2, r4, #5
 8000b00:	1d58      	adds	r0, r3, #5
 8000b02:	1b11      	subs	r1, r2, r4
 8000b04:	4288      	cmp	r0, r1
 8000b06:	d904      	bls.n	8000b12 <rosserial_msgs::Log::deserialize(unsigned char*)+0x28>
 8000b08:	f812 1b01 	ldrb.w	r1, [r2], #1
 8000b0c:	f802 1c02 	strb.w	r1, [r2, #-2]
 8000b10:	e7f7      	b.n	8000b02 <rosserial_msgs::Log::deserialize(unsigned char*)+0x18>
 8000b12:	4423      	add	r3, r4
 8000b14:	2200      	movs	r2, #0
 8000b16:	3404      	adds	r4, #4
 8000b18:	711a      	strb	r2, [r3, #4]
 8000b1a:	60ac      	str	r4, [r5, #8]
 8000b1c:	b003      	add	sp, #12
 8000b1e:	bd30      	pop	{r4, r5, pc}

08000b20 <ros::NodeHandle_<MbedHardware, 25, 25, 512, 512>::requestSyncTime()>:
 8000b20:	b530      	push	{r4, r5, lr}
 8000b22:	b085      	sub	sp, #20
 8000b24:	4604      	mov	r4, r0
 8000b26:	4b09      	ldr	r3, [pc, #36]	; (8000b4c <ros::NodeHandle_<MbedHardware, 25, 25, 512, 512>::requestSyncTime()+0x2c>)
 8000b28:	9301      	str	r3, [sp, #4]
 8000b2a:	2300      	movs	r3, #0
 8000b2c:	9302      	str	r3, [sp, #8]
 8000b2e:	9303      	str	r3, [sp, #12]
 8000b30:	f854 3b7c 	ldr.w	r3, [r4], #124
 8000b34:	aa01      	add	r2, sp, #4
 8000b36:	681b      	ldr	r3, [r3, #0]
 8000b38:	210a      	movs	r1, #10
 8000b3a:	4605      	mov	r5, r0
 8000b3c:	4798      	blx	r3
 8000b3e:	4620      	mov	r0, r4
 8000b40:	f005 f9c1 	bl	8005ec6 <mbed::Timer::read_ms()>
 8000b44:	f8c5 008c 	str.w	r0, [r5, #140]	; 0x8c
 8000b48:	b005      	add	sp, #20
 8000b4a:	bd30      	pop	{r4, r5, pc}
 8000b4c:	080080b4 	.word	0x080080b4

08000b50 <ros::NodeHandle_<MbedHardware, 25, 25, 512, 512>::negotiateTopics()>:
 8000b50:	e92d 41f0 	stmdb	sp!, {r4, r5, r6, r7, r8, lr}
 8000b54:	b086      	sub	sp, #24
 8000b56:	4b2b      	ldr	r3, [pc, #172]	; (8000c04 <ros::NodeHandle_<MbedHardware, 25, 25, 512, 512>::negotiateTopics()+0xb4>)
 8000b58:	9300      	str	r3, [sp, #0]
 8000b5a:	2200      	movs	r2, #0
 8000b5c:	4b2a      	ldr	r3, [pc, #168]	; (8000c08 <ros::NodeHandle_<MbedHardware, 25, 25, 512, 512>::negotiateTopics()+0xb8>)
 8000b5e:	f8ad 2004 	strh.w	r2, [sp, #4]
 8000b62:	4605      	mov	r5, r0
 8000b64:	9302      	str	r3, [sp, #8]
 8000b66:	9303      	str	r3, [sp, #12]
 8000b68:	9304      	str	r3, [sp, #16]
 8000b6a:	9205      	str	r2, [sp, #20]
 8000b6c:	f200 449c 	addw	r4, r0, #1180	; 0x49c
 8000b70:	f500 66a0 	add.w	r6, r0, #1280	; 0x500
 8000b74:	f44f 7700 	mov.w	r7, #512	; 0x200
 8000b78:	6823      	ldr	r3, [r4, #0]
 8000b7a:	b1bb      	cbz	r3, 8000bac <ros::NodeHandle_<MbedHardware, 25, 25, 512, 512>::negotiateTopics()+0x5c>
 8000b7c:	6858      	ldr	r0, [r3, #4]
 8000b7e:	689a      	ldr	r2, [r3, #8]
 8000b80:	f8ad 2004 	strh.w	r2, [sp, #4]
 8000b84:	681a      	ldr	r2, [r3, #0]
 8000b86:	6803      	ldr	r3, [r0, #0]
 8000b88:	9202      	str	r2, [sp, #8]
 8000b8a:	689b      	ldr	r3, [r3, #8]
 8000b8c:	4798      	blx	r3
 8000b8e:	6823      	ldr	r3, [r4, #0]
 8000b90:	9003      	str	r0, [sp, #12]
 8000b92:	6858      	ldr	r0, [r3, #4]
 8000b94:	6803      	ldr	r3, [r0, #0]
 8000b96:	68db      	ldr	r3, [r3, #12]
 8000b98:	4798      	blx	r3
 8000b9a:	6821      	ldr	r1, [r4, #0]
 8000b9c:	682b      	ldr	r3, [r5, #0]
 8000b9e:	9004      	str	r0, [sp, #16]
 8000ba0:	9705      	str	r7, [sp, #20]
 8000ba2:	681b      	ldr	r3, [r3, #0]
 8000ba4:	6909      	ldr	r1, [r1, #16]
 8000ba6:	466a      	mov	r2, sp
 8000ba8:	4628      	mov	r0, r5
 8000baa:	4798      	blx	r3
 8000bac:	3404      	adds	r4, #4
 8000bae:	42b4      	cmp	r4, r6
 8000bb0:	d1e2      	bne.n	8000b78 <ros::NodeHandle_<MbedHardware, 25, 25, 512, 512>::negotiateTopics()+0x28>
 8000bb2:	f205 5664 	addw	r6, r5, #1380	; 0x564
 8000bb6:	f44f 7700 	mov.w	r7, #512	; 0x200
 8000bba:	6820      	ldr	r0, [r4, #0]
 8000bbc:	b1c8      	cbz	r0, 8000bf2 <ros::NodeHandle_<MbedHardware, 25, 25, 512, 512>::negotiateTopics()+0xa2>
 8000bbe:	6843      	ldr	r3, [r0, #4]
 8000bc0:	f8ad 3004 	strh.w	r3, [sp, #4]
 8000bc4:	6883      	ldr	r3, [r0, #8]
 8000bc6:	9302      	str	r3, [sp, #8]
 8000bc8:	6803      	ldr	r3, [r0, #0]
 8000bca:	689b      	ldr	r3, [r3, #8]
 8000bcc:	4798      	blx	r3
 8000bce:	9003      	str	r0, [sp, #12]
 8000bd0:	6820      	ldr	r0, [r4, #0]
 8000bd2:	6803      	ldr	r3, [r0, #0]
 8000bd4:	68db      	ldr	r3, [r3, #12]
 8000bd6:	4798      	blx	r3
 8000bd8:	682b      	ldr	r3, [r5, #0]
 8000bda:	9004      	str	r0, [sp, #16]
 8000bdc:	6820      	ldr	r0, [r4, #0]
 8000bde:	f8d3 8000 	ldr.w	r8, [r3]
 8000be2:	6803      	ldr	r3, [r0, #0]
 8000be4:	9705      	str	r7, [sp, #20]
 8000be6:	685b      	ldr	r3, [r3, #4]
 8000be8:	4798      	blx	r3
 8000bea:	466a      	mov	r2, sp
 8000bec:	4601      	mov	r1, r0
 8000bee:	4628      	mov	r0, r5
 8000bf0:	47c0      	blx	r8
 8000bf2:	3404      	adds	r4, #4
 8000bf4:	42a6      	cmp	r6, r4
 8000bf6:	d1e0      	bne.n	8000bba <ros::NodeHandle_<MbedHardware, 25, 25, 512, 512>::negotiateTopics()+0x6a>
 8000bf8:	2301      	movs	r3, #1
 8000bfa:	f885 3578 	strb.w	r3, [r5, #1400]	; 0x578
 8000bfe:	b006      	add	sp, #24
 8000c00:	e8bd 81f0 	ldmia.w	sp!, {r4, r5, r6, r7, r8, pc}
 8000c04:	080080cc 	.word	0x080080cc
 8000c08:	08008391 	.word	0x08008391

08000c0c <ros::NodeHandle_<MbedHardware, 25, 25, 512, 512>::syncTime(unsigned char*)>:
 8000c0c:	b5f0      	push	{r4, r5, r6, r7, lr}
 8000c0e:	b085      	sub	sp, #20
 8000c10:	f100 057c 	add.w	r5, r0, #124	; 0x7c
 8000c14:	4b1e      	ldr	r3, [pc, #120]	; (8000c90 <ros::NodeHandle_<MbedHardware, 25, 25, 512, 512>::syncTime(unsigned char*)+0x84>)
 8000c16:	9301      	str	r3, [sp, #4]
 8000c18:	4604      	mov	r4, r0
 8000c1a:	2300      	movs	r3, #0
 8000c1c:	4628      	mov	r0, r5
 8000c1e:	9302      	str	r3, [sp, #8]
 8000c20:	9303      	str	r3, [sp, #12]
 8000c22:	460e      	mov	r6, r1
 8000c24:	f005 f94f 	bl	8005ec6 <mbed::Timer::read_ms()>
 8000c28:	f8d4 208c 	ldr.w	r2, [r4, #140]	; 0x8c
 8000c2c:	4631      	mov	r1, r6
 8000c2e:	1a87      	subs	r7, r0, r2
 8000c30:	a801      	add	r0, sp, #4
 8000c32:	f7ff faf5 	bl	8000220 <std_msgs::Time::deserialize(unsigned char*)>
 8000c36:	9b02      	ldr	r3, [sp, #8]
 8000c38:	f44f 767a 	mov.w	r6, #1000	; 0x3e8
 8000c3c:	fbb7 f2f6 	udiv	r2, r7, r6
 8000c40:	4413      	add	r3, r2
 8000c42:	9302      	str	r3, [sp, #8]
 8000c44:	fb06 7212 	mls	r2, r6, r2, r7
 8000c48:	9b03      	ldr	r3, [sp, #12]
 8000c4a:	4f12      	ldr	r7, [pc, #72]	; (8000c94 <ros::NodeHandle_<MbedHardware, 25, 25, 512, 512>::syncTime(unsigned char*)+0x88>)
 8000c4c:	4628      	mov	r0, r5
 8000c4e:	fb07 3202 	mla	r2, r7, r2, r3
 8000c52:	9203      	str	r2, [sp, #12]
 8000c54:	f005 f937 	bl	8005ec6 <mbed::Timer::read_ms()>
 8000c58:	9a02      	ldr	r2, [sp, #8]
 8000c5a:	fbb0 f3f6 	udiv	r3, r0, r6
 8000c5e:	3a01      	subs	r2, #1
 8000c60:	1ad2      	subs	r2, r2, r3
 8000c62:	f8c4 2090 	str.w	r2, [r4, #144]	; 0x90
 8000c66:	9903      	ldr	r1, [sp, #12]
 8000c68:	4a0b      	ldr	r2, [pc, #44]	; (8000c98 <ros::NodeHandle_<MbedHardware, 25, 25, 512, 512>::syncTime(unsigned char*)+0x8c>)
 8000c6a:	fb06 0313 	mls	r3, r6, r3, r0
 8000c6e:	440a      	add	r2, r1
 8000c70:	4621      	mov	r1, r4
 8000c72:	fb07 2313 	mls	r3, r7, r3, r2
 8000c76:	f841 3f94 	str.w	r3, [r1, #148]!
 8000c7a:	f104 0090 	add.w	r0, r4, #144	; 0x90
 8000c7e:	f000 fcf1 	bl	8001664 <ros::normalizeSecNSec(unsigned long&, unsigned long&)>
 8000c82:	4628      	mov	r0, r5
 8000c84:	f005 f91f 	bl	8005ec6 <mbed::Timer::read_ms()>
 8000c88:	f8c4 0580 	str.w	r0, [r4, #1408]	; 0x580
 8000c8c:	b005      	add	sp, #20
 8000c8e:	bdf0      	pop	{r4, r5, r6, r7, pc}
 8000c90:	080080b4 	.word	0x080080b4
 8000c94:	000f4240 	.word	0x000f4240
 8000c98:	3b9aca00 	.word	0x3b9aca00

08000c9c <_GLOBAL__sub_I_speed>:
 8000c9c:	b537      	push	{r0, r1, r2, r4, r5, lr}
 8000c9e:	2100      	movs	r1, #0
 8000ca0:	4848      	ldr	r0, [pc, #288]	; (8000dc4 <_GLOBAL__sub_I_speed+0x128>)
 8000ca2:	4c49      	ldr	r4, [pc, #292]	; (8000dc8 <_GLOBAL__sub_I_speed+0x12c>)
 8000ca4:	f005 f82e 	bl	8005d04 <mbed::InterruptIn::InterruptIn(PinName)>
 8000ca8:	4a48      	ldr	r2, [pc, #288]	; (8000dcc <_GLOBAL__sub_I_speed+0x130>)
 8000caa:	4949      	ldr	r1, [pc, #292]	; (8000dd0 <_GLOBAL__sub_I_speed+0x134>)
 8000cac:	4845      	ldr	r0, [pc, #276]	; (8000dc4 <_GLOBAL__sub_I_speed+0x128>)
 8000cae:	f005 faad 	bl	800620c <__aeabi_atexit>
 8000cb2:	2101      	movs	r1, #1
 8000cb4:	4847      	ldr	r0, [pc, #284]	; (8000dd4 <_GLOBAL__sub_I_speed+0x138>)
 8000cb6:	f005 f825 	bl	8005d04 <mbed::InterruptIn::InterruptIn(PinName)>
 8000cba:	4a44      	ldr	r2, [pc, #272]	; (8000dcc <_GLOBAL__sub_I_speed+0x130>)
 8000cbc:	4944      	ldr	r1, [pc, #272]	; (8000dd0 <_GLOBAL__sub_I_speed+0x134>)
 8000cbe:	4845      	ldr	r0, [pc, #276]	; (8000dd4 <_GLOBAL__sub_I_speed+0x138>)
 8000cc0:	f005 faa4 	bl	800620c <__aeabi_atexit>
 8000cc4:	f000 ffc6 	bl	8001c54 <core_util_critical_section_enter>
 8000cc8:	2103      	movs	r1, #3
 8000cca:	4843      	ldr	r0, [pc, #268]	; (8000dd8 <_GLOBAL__sub_I_speed+0x13c>)
 8000ccc:	f003 f98a 	bl	8003fe4 <pwmout_init>
 8000cd0:	f000 ffd6 	bl	8001c80 <core_util_critical_section_exit>
 8000cd4:	221c      	movs	r2, #28
 8000cd6:	2100      	movs	r1, #0
 8000cd8:	4840      	ldr	r0, [pc, #256]	; (8000ddc <_GLOBAL__sub_I_speed+0x140>)
 8000cda:	f006 fd46 	bl	800776a <memset>
 8000cde:	2201      	movs	r2, #1
 8000ce0:	2117      	movs	r1, #23
 8000ce2:	483e      	ldr	r0, [pc, #248]	; (8000ddc <_GLOBAL__sub_I_speed+0x140>)
 8000ce4:	f000 febb 	bl	8001a5e <gpio_init_out_ex>
 8000ce8:	221c      	movs	r2, #28
 8000cea:	2100      	movs	r1, #0
 8000cec:	483c      	ldr	r0, [pc, #240]	; (8000de0 <_GLOBAL__sub_I_speed+0x144>)
 8000cee:	f006 fd3c 	bl	800776a <memset>
 8000cf2:	2201      	movs	r2, #1
 8000cf4:	2108      	movs	r1, #8
 8000cf6:	483a      	ldr	r0, [pc, #232]	; (8000de0 <_GLOBAL__sub_I_speed+0x144>)
 8000cf8:	f000 feb1 	bl	8001a5e <gpio_init_out_ex>
 8000cfc:	4620      	mov	r0, r4
 8000cfe:	2500      	movs	r5, #0
 8000d00:	f005 f908 	bl	8005f14 <mbed::TimerEvent::TimerEvent()>
 8000d04:	4b37      	ldr	r3, [pc, #220]	; (8000de4 <_GLOBAL__sub_I_speed+0x148>)
 8000d06:	6023      	str	r3, [r4, #0]
 8000d08:	4a30      	ldr	r2, [pc, #192]	; (8000dcc <_GLOBAL__sub_I_speed+0x130>)
 8000d0a:	4937      	ldr	r1, [pc, #220]	; (8000de8 <_GLOBAL__sub_I_speed+0x14c>)
 8000d0c:	6265      	str	r5, [r4, #36]	; 0x24
 8000d0e:	4620      	mov	r0, r4
 8000d10:	4c36      	ldr	r4, [pc, #216]	; (8000dec <_GLOBAL__sub_I_speed+0x150>)
 8000d12:	f005 fa7b 	bl	800620c <__aeabi_atexit>
 8000d16:	4836      	ldr	r0, [pc, #216]	; (8000df0 <_GLOBAL__sub_I_speed+0x154>)
 8000d18:	f005 f8eb 	bl	8005ef2 <mbed::Timer::Timer()>
 8000d1c:	4620      	mov	r0, r4
 8000d1e:	4b35      	ldr	r3, [pc, #212]	; (8000df4 <_GLOBAL__sub_I_speed+0x158>)
 8000d20:	f840 3b04 	str.w	r3, [r0], #4
 8000d24:	2304      	movs	r3, #4
 8000d26:	220f      	movs	r2, #15
 8000d28:	2102      	movs	r1, #2
 8000d2a:	9300      	str	r3, [sp, #0]
 8000d2c:	9501      	str	r5, [sp, #4]
 8000d2e:	f44f 7380 	mov.w	r3, #256	; 0x100
 8000d32:	f000 fd63 	bl	80017fc <BufferedSerial::BufferedSerial(PinName, PinName, unsigned long, unsigned long, char const*)>
 8000d36:	f104 007c 	add.w	r0, r4, #124	; 0x7c
 8000d3a:	f005 f8da 	bl	8005ef2 <mbed::Timer::Timer()>
 8000d3e:	f44f 4361 	mov.w	r3, #57600	; 0xe100
 8000d42:	67a3      	str	r3, [r4, #120]	; 0x78
 8000d44:	f104 007c 	add.w	r0, r4, #124	; 0x7c
 8000d48:	f005 f881 	bl	8005e4e <mbed::Timer::start()>
 8000d4c:	4b2a      	ldr	r3, [pc, #168]	; (8000df8 <_GLOBAL__sub_I_speed+0x15c>)
 8000d4e:	f884 5578 	strb.w	r5, [r4, #1400]	; 0x578
 8000d52:	f8c4 358c 	str.w	r3, [r4, #1420]	; 0x58c
 8000d56:	f8c4 5590 	str.w	r5, [r4, #1424]	; 0x590
 8000d5a:	f8c4 5598 	str.w	r5, [r4, #1432]	; 0x598
 8000d5e:	f8c4 559c 	str.w	r5, [r4, #1436]	; 0x59c
 8000d62:	f8c4 55a4 	str.w	r5, [r4, #1444]	; 0x5a4
 8000d66:	f8c4 55a8 	str.w	r5, [r4, #1448]	; 0x5a8
 8000d6a:	f8c4 55b0 	str.w	r5, [r4, #1456]	; 0x5b0
 8000d6e:	462a      	mov	r2, r5
 8000d70:	1963      	adds	r3, r4, r5
 8000d72:	3504      	adds	r5, #4
 8000d74:	2d64      	cmp	r5, #100	; 0x64
 8000d76:	f8c3 249c 	str.w	r2, [r3, #1180]	; 0x49c
 8000d7a:	d1f9      	bne.n	8000d70 <_GLOBAL__sub_I_speed+0xd4>
 8000d7c:	2300      	movs	r3, #0
 8000d7e:	4619      	mov	r1, r3
 8000d80:	18e2      	adds	r2, r4, r3
 8000d82:	3304      	adds	r3, #4
 8000d84:	2b64      	cmp	r3, #100	; 0x64
 8000d86:	f8c2 1500 	str.w	r1, [r2, #1280]	; 0x500
 8000d8a:	d1f9      	bne.n	8000d80 <_GLOBAL__sub_I_speed+0xe4>
 8000d8c:	2300      	movs	r3, #0
 8000d8e:	4619      	mov	r1, r3
 8000d90:	18e2      	adds	r2, r4, r3
 8000d92:	3301      	adds	r3, #1
 8000d94:	f5b3 7f00 	cmp.w	r3, #512	; 0x200
 8000d98:	f882 109c 	strb.w	r1, [r2, #156]	; 0x9c
 8000d9c:	d1f8      	bne.n	8000d90 <_GLOBAL__sub_I_speed+0xf4>
 8000d9e:	2300      	movs	r3, #0
 8000da0:	461a      	mov	r2, r3
 8000da2:	18e1      	adds	r1, r4, r3
 8000da4:	3301      	adds	r3, #1
 8000da6:	f5b3 7f00 	cmp.w	r3, #512	; 0x200
 8000daa:	f881 229c 	strb.w	r2, [r1, #668]	; 0x29c
 8000dae:	d1f8      	bne.n	8000da2 <_GLOBAL__sub_I_speed+0x106>
 8000db0:	f8c4 2098 	str.w	r2, [r4, #152]	; 0x98
 8000db4:	4911      	ldr	r1, [pc, #68]	; (8000dfc <_GLOBAL__sub_I_speed+0x160>)
 8000db6:	4a05      	ldr	r2, [pc, #20]	; (8000dcc <_GLOBAL__sub_I_speed+0x130>)
 8000db8:	480c      	ldr	r0, [pc, #48]	; (8000dec <_GLOBAL__sub_I_speed+0x150>)
 8000dba:	b003      	add	sp, #12
 8000dbc:	e8bd 4030 	ldmia.w	sp!, {r4, r5, lr}
 8000dc0:	f005 ba24 	b.w	800620c <__aeabi_atexit>
 8000dc4:	20000114 	.word	0x20000114
 8000dc8:	2000079c 	.word	0x2000079c
 8000dcc:	20000000 	.word	0x20000000
 8000dd0:	08005cc9 	.word	0x08005cc9
 8000dd4:	200000c4 	.word	0x200000c4
 8000dd8:	20000164 	.word	0x20000164
 8000ddc:	20000184 	.word	0x20000184
 8000de0:	200001a0 	.word	0x200001a0
 8000de4:	080087cc 	.word	0x080087cc
 8000de8:	08000585 	.word	0x08000585
 8000dec:	200001c8 	.word	0x200001c8
 8000df0:	2000078c 	.word	0x2000078c
 8000df4:	08008114 	.word	0x08008114
 8000df8:	080080fc 	.word	0x080080fc
 8000dfc:	080010e1 	.word	0x080010e1

08000e00 <ros::NodeHandle_<MbedHardware, 25, 25, 512, 512>::spinOnce()>:
 8000e00:	e92d 47f0 	stmdb	sp!, {r4, r5, r6, r7, r8, r9, r10, lr}
 8000e04:	f100 087c 	add.w	r8, r0, #124	; 0x7c
 8000e08:	4604      	mov	r4, r0
 8000e0a:	4640      	mov	r0, r8
 8000e0c:	f005 f85b 	bl	8005ec6 <mbed::Timer::read_ms()>
 8000e10:	f8d4 3580 	ldr.w	r3, [r4, #1408]	; 0x580
 8000e14:	f642 22f8 	movw	r2, #11000	; 0x2af8
 8000e18:	1ac3      	subs	r3, r0, r3
 8000e1a:	4293      	cmp	r3, r2
 8000e1c:	bf84      	itt	hi
 8000e1e:	2300      	movhi	r3, #0
 8000e20:	f884 3578 	strbhi.w	r3, [r4, #1400]	; 0x578
 8000e24:	f8d4 3564 	ldr.w	r3, [r4, #1380]	; 0x564
 8000e28:	4605      	mov	r5, r0
 8000e2a:	b133      	cbz	r3, 8000e3a <ros::NodeHandle_<MbedHardware, 25, 25, 512, 512>::spinOnce()+0x3a>
 8000e2c:	f8d4 3584 	ldr.w	r3, [r4, #1412]	; 0x584
 8000e30:	4283      	cmp	r3, r0
 8000e32:	bf3c      	itt	cc
 8000e34:	2300      	movcc	r3, #0
 8000e36:	f8c4 3564 	strcc.w	r3, [r4, #1380]	; 0x564
 8000e3a:	f104 0904 	add.w	r9, r4, #4
 8000e3e:	2600      	movs	r6, #0
 8000e40:	f104 079c 	add.w	r7, r4, #156	; 0x9c
 8000e44:	f8d4 3098 	ldr.w	r3, [r4, #152]	; 0x98
 8000e48:	b9ab      	cbnz	r3, 8000e76 <ros::NodeHandle_<MbedHardware, 25, 25, 512, 512>::spinOnce()+0x76>
 8000e4a:	4648      	mov	r0, r9
 8000e4c:	f000 fc18 	bl	8001680 <BufferedSerial::readable()>
 8000e50:	b9e8      	cbnz	r0, 8000e8e <ros::NodeHandle_<MbedHardware, 25, 25, 512, 512>::spinOnce()+0x8e>
 8000e52:	f894 0578 	ldrb.w	r0, [r4, #1400]	; 0x578
 8000e56:	b160      	cbz	r0, 8000e72 <ros::NodeHandle_<MbedHardware, 25, 25, 512, 512>::spinOnce()+0x72>
 8000e58:	f8d4 357c 	ldr.w	r3, [r4, #1404]	; 0x57c
 8000e5c:	f640 12c4 	movw	r2, #2500	; 0x9c4
 8000e60:	1aeb      	subs	r3, r5, r3
 8000e62:	4293      	cmp	r3, r2
 8000e64:	d904      	bls.n	8000e70 <ros::NodeHandle_<MbedHardware, 25, 25, 512, 512>::spinOnce()+0x70>
 8000e66:	4620      	mov	r0, r4
 8000e68:	f7ff fe5a 	bl	8000b20 <ros::NodeHandle_<MbedHardware, 25, 25, 512, 512>::requestSyncTime()>
 8000e6c:	f8c4 557c 	str.w	r5, [r4, #1404]	; 0x57c
 8000e70:	2000      	movs	r0, #0
 8000e72:	e8bd 87f0 	ldmia.w	sp!, {r4, r5, r6, r7, r8, r9, r10, pc}
 8000e76:	4640      	mov	r0, r8
 8000e78:	f005 f825 	bl	8005ec6 <mbed::Timer::read_ms()>
 8000e7c:	f8d4 3098 	ldr.w	r3, [r4, #152]	; 0x98
 8000e80:	1b40      	subs	r0, r0, r5
 8000e82:	4298      	cmp	r0, r3
 8000e84:	d9e1      	bls.n	8000e4a <ros::NodeHandle_<MbedHardware, 25, 25, 512, 512>::spinOnce()+0x4a>
 8000e86:	f06f 0001 	mvn.w	r0, #1
 8000e8a:	e8bd 87f0 	ldmia.w	sp!, {r4, r5, r6, r7, r8, r9, r10, pc}
 8000e8e:	4648      	mov	r0, r9
 8000e90:	f000 fbfe 	bl	8001690 <BufferedSerial::getc()>
 8000e94:	2800      	cmp	r0, #0
 8000e96:	dbdc      	blt.n	8000e52 <ros::NodeHandle_<MbedHardware, 25, 25, 512, 512>::spinOnce()+0x52>
 8000e98:	f8d4 3574 	ldr.w	r3, [r4, #1396]	; 0x574
 8000e9c:	f8d4 a564 	ldr.w	r10, [r4, #1380]	; 0x564
 8000ea0:	4403      	add	r3, r0
 8000ea2:	f1ba 0f07 	cmp.w	r10, #7
 8000ea6:	f8c4 3574 	str.w	r3, [r4, #1396]	; 0x574
 8000eaa:	d112      	bne.n	8000ed2 <ros::NodeHandle_<MbedHardware, 25, 25, 512, 512>::spinOnce()+0xd2>
 8000eac:	f8d4 3570 	ldr.w	r3, [r4, #1392]	; 0x570
 8000eb0:	1c5a      	adds	r2, r3, #1
 8000eb2:	4423      	add	r3, r4
 8000eb4:	f8c4 2570 	str.w	r2, [r4, #1392]	; 0x570
 8000eb8:	f883 009c 	strb.w	r0, [r3, #156]	; 0x9c
 8000ebc:	f8d4 3568 	ldr.w	r3, [r4, #1384]	; 0x568
 8000ec0:	3b01      	subs	r3, #1
 8000ec2:	f8c4 3568 	str.w	r3, [r4, #1384]	; 0x568
 8000ec6:	2b00      	cmp	r3, #0
 8000ec8:	d1bc      	bne.n	8000e44 <ros::NodeHandle_<MbedHardware, 25, 25, 512, 512>::spinOnce()+0x44>
 8000eca:	2308      	movs	r3, #8
 8000ecc:	f8c4 3564 	str.w	r3, [r4, #1380]	; 0x564
 8000ed0:	e7b8      	b.n	8000e44 <ros::NodeHandle_<MbedHardware, 25, 25, 512, 512>::spinOnce()+0x44>
 8000ed2:	f1ba 0f00 	cmp.w	r10, #0
 8000ed6:	d114      	bne.n	8000f02 <ros::NodeHandle_<MbedHardware, 25, 25, 512, 512>::spinOnce()+0x102>
 8000ed8:	28ff      	cmp	r0, #255	; 0xff
 8000eda:	d107      	bne.n	8000eec <ros::NodeHandle_<MbedHardware, 25, 25, 512, 512>::spinOnce()+0xec>
 8000edc:	2301      	movs	r3, #1
 8000ede:	f8c4 3564 	str.w	r3, [r4, #1380]	; 0x564
 8000ee2:	f105 0314 	add.w	r3, r5, #20
 8000ee6:	f8c4 3584 	str.w	r3, [r4, #1412]	; 0x584
 8000eea:	e7ab      	b.n	8000e44 <ros::NodeHandle_<MbedHardware, 25, 25, 512, 512>::spinOnce()+0x44>
 8000eec:	4640      	mov	r0, r8
 8000eee:	f004 ffea 	bl	8005ec6 <mbed::Timer::read_ms()>
 8000ef2:	f241 3388 	movw	r3, #5000	; 0x1388
 8000ef6:	1b40      	subs	r0, r0, r5
 8000ef8:	4298      	cmp	r0, r3
 8000efa:	d9a3      	bls.n	8000e44 <ros::NodeHandle_<MbedHardware, 25, 25, 512, 512>::spinOnce()+0x44>
 8000efc:	f884 a578 	strb.w	r10, [r4, #1400]	; 0x578
 8000f00:	e7c1      	b.n	8000e86 <ros::NodeHandle_<MbedHardware, 25, 25, 512, 512>::spinOnce()+0x86>
 8000f02:	f1ba 0f01 	cmp.w	r10, #1
 8000f06:	d10d      	bne.n	8000f24 <ros::NodeHandle_<MbedHardware, 25, 25, 512, 512>::spinOnce()+0x124>
 8000f08:	28fe      	cmp	r0, #254	; 0xfe
 8000f0a:	d101      	bne.n	8000f10 <ros::NodeHandle_<MbedHardware, 25, 25, 512, 512>::spinOnce()+0x110>
 8000f0c:	2302      	movs	r3, #2
 8000f0e:	e7dd      	b.n	8000ecc <ros::NodeHandle_<MbedHardware, 25, 25, 512, 512>::spinOnce()+0xcc>
 8000f10:	f894 3578 	ldrb.w	r3, [r4, #1400]	; 0x578
 8000f14:	f8c4 6564 	str.w	r6, [r4, #1380]	; 0x564
 8000f18:	2b00      	cmp	r3, #0
 8000f1a:	d193      	bne.n	8000e44 <ros::NodeHandle_<MbedHardware, 25, 25, 512, 512>::spinOnce()+0x44>
 8000f1c:	4620      	mov	r0, r4
 8000f1e:	f7ff fdff 	bl	8000b20 <ros::NodeHandle_<MbedHardware, 25, 25, 512, 512>::requestSyncTime()>
 8000f22:	e78f      	b.n	8000e44 <ros::NodeHandle_<MbedHardware, 25, 25, 512, 512>::spinOnce()+0x44>
 8000f24:	f1ba 0f02 	cmp.w	r10, #2
 8000f28:	d109      	bne.n	8000f3e <ros::NodeHandle_<MbedHardware, 25, 25, 512, 512>::spinOnce()+0x13e>
 8000f2a:	f8c4 0568 	str.w	r0, [r4, #1384]	; 0x568
 8000f2e:	f8c4 6570 	str.w	r6, [r4, #1392]	; 0x570
 8000f32:	2303      	movs	r3, #3
 8000f34:	f8c4 3564 	str.w	r3, [r4, #1380]	; 0x564
 8000f38:	f8c4 0574 	str.w	r0, [r4, #1396]	; 0x574
 8000f3c:	e782      	b.n	8000e44 <ros::NodeHandle_<MbedHardware, 25, 25, 512, 512>::spinOnce()+0x44>
 8000f3e:	f1ba 0f03 	cmp.w	r10, #3
 8000f42:	d107      	bne.n	8000f54 <ros::NodeHandle_<MbedHardware, 25, 25, 512, 512>::spinOnce()+0x154>
 8000f44:	f8d4 3568 	ldr.w	r3, [r4, #1384]	; 0x568
 8000f48:	eb03 2000 	add.w	r0, r3, r0, lsl #8
 8000f4c:	f8c4 0568 	str.w	r0, [r4, #1384]	; 0x568
 8000f50:	2304      	movs	r3, #4
 8000f52:	e7bb      	b.n	8000ecc <ros::NodeHandle_<MbedHardware, 25, 25, 512, 512>::spinOnce()+0xcc>
 8000f54:	f1ba 0f04 	cmp.w	r10, #4
 8000f58:	d10b      	bne.n	8000f72 <ros::NodeHandle_<MbedHardware, 25, 25, 512, 512>::spinOnce()+0x172>
 8000f5a:	425a      	negs	r2, r3
 8000f5c:	b2d2      	uxtb	r2, r2
 8000f5e:	b2db      	uxtb	r3, r3
 8000f60:	bf58      	it	pl
 8000f62:	4253      	negpl	r3, r2
 8000f64:	2bff      	cmp	r3, #255	; 0xff
 8000f66:	d101      	bne.n	8000f6c <ros::NodeHandle_<MbedHardware, 25, 25, 512, 512>::spinOnce()+0x16c>
 8000f68:	2305      	movs	r3, #5
 8000f6a:	e7af      	b.n	8000ecc <ros::NodeHandle_<MbedHardware, 25, 25, 512, 512>::spinOnce()+0xcc>
 8000f6c:	f8c4 6564 	str.w	r6, [r4, #1380]	; 0x564
 8000f70:	e768      	b.n	8000e44 <ros::NodeHandle_<MbedHardware, 25, 25, 512, 512>::spinOnce()+0x44>
 8000f72:	f1ba 0f05 	cmp.w	r10, #5
 8000f76:	d103      	bne.n	8000f80 <ros::NodeHandle_<MbedHardware, 25, 25, 512, 512>::spinOnce()+0x180>
 8000f78:	f8c4 056c 	str.w	r0, [r4, #1388]	; 0x56c
 8000f7c:	2306      	movs	r3, #6
 8000f7e:	e7d9      	b.n	8000f34 <ros::NodeHandle_<MbedHardware, 25, 25, 512, 512>::spinOnce()+0x134>
 8000f80:	f1ba 0f06 	cmp.w	r10, #6
 8000f84:	d10b      	bne.n	8000f9e <ros::NodeHandle_<MbedHardware, 25, 25, 512, 512>::spinOnce()+0x19e>
 8000f86:	f8d4 356c 	ldr.w	r3, [r4, #1388]	; 0x56c
 8000f8a:	eb03 2000 	add.w	r0, r3, r0, lsl #8
 8000f8e:	2307      	movs	r3, #7
 8000f90:	f8c4 3564 	str.w	r3, [r4, #1380]	; 0x564
 8000f94:	f8c4 056c 	str.w	r0, [r4, #1388]	; 0x56c
 8000f98:	f8d4 3568 	ldr.w	r3, [r4, #1384]	; 0x568
 8000f9c:	e793      	b.n	8000ec6 <ros::NodeHandle_<MbedHardware, 25, 25, 512, 512>::spinOnce()+0xc6>
 8000f9e:	f1ba 0f08 	cmp.w	r10, #8
 8000fa2:	f47f af4f 	bne.w	8000e44 <ros::NodeHandle_<MbedHardware, 25, 25, 512, 512>::spinOnce()+0x44>
 8000fa6:	425a      	negs	r2, r3
 8000fa8:	b2d2      	uxtb	r2, r2
 8000faa:	b2db      	uxtb	r3, r3
 8000fac:	bf58      	it	pl
 8000fae:	4253      	negpl	r3, r2
 8000fb0:	2bff      	cmp	r3, #255	; 0xff
 8000fb2:	f8c4 6564 	str.w	r6, [r4, #1380]	; 0x564
 8000fb6:	f47f af45 	bne.w	8000e44 <ros::NodeHandle_<MbedHardware, 25, 25, 512, 512>::spinOnce()+0x44>
 8000fba:	f8d4 356c 	ldr.w	r3, [r4, #1388]	; 0x56c
 8000fbe:	b96b      	cbnz	r3, 8000fdc <ros::NodeHandle_<MbedHardware, 25, 25, 512, 512>::spinOnce()+0x1dc>
 8000fc0:	4620      	mov	r0, r4
 8000fc2:	f7ff fdad 	bl	8000b20 <ros::NodeHandle_<MbedHardware, 25, 25, 512, 512>::requestSyncTime()>
 8000fc6:	4620      	mov	r0, r4
 8000fc8:	f7ff fdc2 	bl	8000b50 <ros::NodeHandle_<MbedHardware, 25, 25, 512, 512>::negotiateTopics()>
 8000fcc:	f8c4 557c 	str.w	r5, [r4, #1404]	; 0x57c
 8000fd0:	f8c4 5580 	str.w	r5, [r4, #1408]	; 0x580
 8000fd4:	f04f 30ff 	mov.w	r0, #4294967295	; 0xffffffff
 8000fd8:	e8bd 87f0 	ldmia.w	sp!, {r4, r5, r6, r7, r8, r9, r10, pc}
 8000fdc:	2b0a      	cmp	r3, #10
 8000fde:	d104      	bne.n	8000fea <ros::NodeHandle_<MbedHardware, 25, 25, 512, 512>::spinOnce()+0x1ea>
 8000fe0:	4639      	mov	r1, r7
 8000fe2:	4620      	mov	r0, r4
 8000fe4:	f7ff fe12 	bl	8000c0c <ros::NodeHandle_<MbedHardware, 25, 25, 512, 512>::syncTime(unsigned char*)>
 8000fe8:	e72c      	b.n	8000e44 <ros::NodeHandle_<MbedHardware, 25, 25, 512, 512>::spinOnce()+0x44>
 8000fea:	2b06      	cmp	r3, #6
 8000fec:	d108      	bne.n	8001000 <ros::NodeHandle_<MbedHardware, 25, 25, 512, 512>::spinOnce()+0x200>
 8000fee:	4639      	mov	r1, r7
 8000ff0:	f204 508c 	addw	r0, r4, #1420	; 0x58c
 8000ff4:	f7ff fce2 	bl	80009bc <rosserial_msgs::RequestParamResponse::deserialize(unsigned char*)>
 8000ff8:	2301      	movs	r3, #1
 8000ffa:	f884 3588 	strb.w	r3, [r4, #1416]	; 0x588
 8000ffe:	e721      	b.n	8000e44 <ros::NodeHandle_<MbedHardware, 25, 25, 512, 512>::spinOnce()+0x44>
 8001000:	2b0b      	cmp	r3, #11
 8001002:	d102      	bne.n	800100a <ros::NodeHandle_<MbedHardware, 25, 25, 512, 512>::spinOnce()+0x20a>
 8001004:	f884 6578 	strb.w	r6, [r4, #1400]	; 0x578
 8001008:	e71c      	b.n	8000e44 <ros::NodeHandle_<MbedHardware, 25, 25, 512, 512>::spinOnce()+0x44>
 800100a:	33dc      	adds	r3, #220	; 0xdc
 800100c:	f854 0023 	ldr.w	r0, [r4, r3, lsl #2]
 8001010:	2800      	cmp	r0, #0
 8001012:	f43f af17 	beq.w	8000e44 <ros::NodeHandle_<MbedHardware, 25, 25, 512, 512>::spinOnce()+0x44>
 8001016:	6803      	ldr	r3, [r0, #0]
 8001018:	4639      	mov	r1, r7
 800101a:	681b      	ldr	r3, [r3, #0]
 800101c:	4798      	blx	r3
 800101e:	e711      	b.n	8000e44 <ros::NodeHandle_<MbedHardware, 25, 25, 512, 512>::spinOnce()+0x44>

08001020 <ros::NodeHandle_<MbedHardware, 25, 25, 512, 512>::publish(int, ros::Msg const*)>:
 8001020:	b5f0      	push	{r4, r5, r6, r7, lr}
 8001022:	2963      	cmp	r1, #99	; 0x63
 8001024:	b085      	sub	sp, #20
 8001026:	4604      	mov	r4, r0
 8001028:	460e      	mov	r6, r1
 800102a:	dd03      	ble.n	8001034 <ros::NodeHandle_<MbedHardware, 25, 25, 512, 512>::publish(int, ros::Msg const*)+0x14>
 800102c:	f890 5578 	ldrb.w	r5, [r0, #1400]	; 0x578
 8001030:	2d00      	cmp	r5, #0
 8001032:	d04d      	beq.n	80010d0 <ros::NodeHandle_<MbedHardware, 25, 25, 512, 512>::publish(int, ros::Msg const*)+0xb0>
 8001034:	6813      	ldr	r3, [r2, #0]
 8001036:	f204 21a3 	addw	r1, r4, #675	; 0x2a3
 800103a:	681b      	ldr	r3, [r3, #0]
 800103c:	4610      	mov	r0, r2
 800103e:	4798      	blx	r3
 8001040:	23ff      	movs	r3, #255	; 0xff
 8001042:	f884 329c 	strb.w	r3, [r4, #668]	; 0x29c
 8001046:	23fe      	movs	r3, #254	; 0xfe
 8001048:	f3c0 2207 	ubfx	r2, r0, #8, #8
 800104c:	f884 329d 	strb.w	r3, [r4, #669]	; 0x29d
 8001050:	b2c3      	uxtb	r3, r0
 8001052:	f884 329e 	strb.w	r3, [r4, #670]	; 0x29e
 8001056:	4413      	add	r3, r2
 8001058:	43db      	mvns	r3, r3
 800105a:	f884 62a1 	strb.w	r6, [r4, #673]	; 0x2a1
 800105e:	f346 2607 	sbfx	r6, r6, #8, #8
 8001062:	f884 229f 	strb.w	r2, [r4, #671]	; 0x29f
 8001066:	f884 32a0 	strb.w	r3, [r4, #672]	; 0x2a0
 800106a:	f884 62a2 	strb.w	r6, [r4, #674]	; 0x2a2
 800106e:	f204 21a1 	addw	r1, r4, #673	; 0x2a1
 8001072:	2205      	movs	r2, #5
 8001074:	2300      	movs	r3, #0
 8001076:	1d86      	adds	r6, r0, #6
 8001078:	42b2      	cmp	r2, r6
 800107a:	dc04      	bgt.n	8001086 <ros::NodeHandle_<MbedHardware, 25, 25, 512, 512>::publish(int, ros::Msg const*)+0x66>
 800107c:	f811 5b01 	ldrb.w	r5, [r1], #1
 8001080:	3201      	adds	r2, #1
 8001082:	442b      	add	r3, r5
 8001084:	e7f8      	b.n	8001078 <ros::NodeHandle_<MbedHardware, 25, 25, 512, 512>::publish(int, ros::Msg const*)+0x58>
 8001086:	f100 0508 	add.w	r5, r0, #8
 800108a:	4420      	add	r0, r4
 800108c:	43db      	mvns	r3, r3
 800108e:	f5b5 7f00 	cmp.w	r5, #512	; 0x200
 8001092:	f880 32a3 	strb.w	r3, [r0, #675]	; 0x2a3
 8001096:	dc0c      	bgt.n	80010b2 <ros::NodeHandle_<MbedHardware, 25, 25, 512, 512>::publish(int, ros::Msg const*)+0x92>
 8001098:	f504 7727 	add.w	r7, r4, #668	; 0x29c
 800109c:	463e      	mov	r6, r7
 800109e:	3404      	adds	r4, #4
 80010a0:	1bf3      	subs	r3, r6, r7
 80010a2:	429d      	cmp	r5, r3
 80010a4:	dd14      	ble.n	80010d0 <ros::NodeHandle_<MbedHardware, 25, 25, 512, 512>::publish(int, ros::Msg const*)+0xb0>
 80010a6:	f816 1b01 	ldrb.w	r1, [r6], #1
 80010aa:	4620      	mov	r0, r4
 80010ac:	f000 fc13 	bl	80018d6 <BufferedSerial::putc(int)>
 80010b0:	e7f6      	b.n	80010a0 <ros::NodeHandle_<MbedHardware, 25, 25, 512, 512>::publish(int, ros::Msg const*)+0x80>
 80010b2:	4b09      	ldr	r3, [pc, #36]	; (80010d8 <ros::NodeHandle_<MbedHardware, 25, 25, 512, 512>::publish(int, ros::Msg const*)+0xb8>)
 80010b4:	9301      	str	r3, [sp, #4]
 80010b6:	2303      	movs	r3, #3
 80010b8:	f88d 3008 	strb.w	r3, [sp, #8]
 80010bc:	4b07      	ldr	r3, [pc, #28]	; (80010dc <ros::NodeHandle_<MbedHardware, 25, 25, 512, 512>::publish(int, ros::Msg const*)+0xbc>)
 80010be:	9303      	str	r3, [sp, #12]
 80010c0:	6823      	ldr	r3, [r4, #0]
 80010c2:	aa01      	add	r2, sp, #4
 80010c4:	681b      	ldr	r3, [r3, #0]
 80010c6:	2107      	movs	r1, #7
 80010c8:	4620      	mov	r0, r4
 80010ca:	4798      	blx	r3
 80010cc:	f04f 35ff 	mov.w	r5, #4294967295	; 0xffffffff
 80010d0:	4628      	mov	r0, r5
 80010d2:	b005      	add	sp, #20
 80010d4:	bdf0      	pop	{r4, r5, r6, r7, pc}
 80010d6:	bf00      	nop
 80010d8:	080080e4 	.word	0x080080e4
 80010dc:	080081d7 	.word	0x080081d7

080010e0 <ros::NodeHandle_<MbedHardware, 25, 25, 512, 512>::~NodeHandle_()>:
 80010e0:	b510      	push	{r4, lr}
 80010e2:	4b04      	ldr	r3, [pc, #16]	; (80010f4 <ros::NodeHandle_<MbedHardware, 25, 25, 512, 512>::~NodeHandle_()+0x14>)
 80010e4:	4604      	mov	r4, r0
 80010e6:	f840 3b04 	str.w	r3, [r0], #4
 80010ea:	f000 fb13 	bl	8001714 <BufferedSerial::~BufferedSerial()>
 80010ee:	4620      	mov	r0, r4
 80010f0:	bd10      	pop	{r4, pc}
 80010f2:	bf00      	nop
 80010f4:	08008114 	.word	0x08008114

080010f8 <std_msgs::String::getType()>:
 80010f8:	4800      	ldr	r0, [pc, #0]	; (80010fc <std_msgs::String::getType()+0x4>)
 80010fa:	4770      	bx	lr
 80010fc:	080082b9 	.word	0x080082b9

08001100 <std_msgs::String::getMD5()>:
 8001100:	4800      	ldr	r0, [pc, #0]	; (8001104 <std_msgs::String::getMD5()+0x4>)
 8001102:	4770      	bx	lr
 8001104:	08008298 	.word	0x08008298

08001108 <std_msgs::UInt32::serialize(unsigned char*) const>:
 8001108:	6843      	ldr	r3, [r0, #4]
 800110a:	700b      	strb	r3, [r1, #0]
 800110c:	6843      	ldr	r3, [r0, #4]
 800110e:	0a1b      	lsrs	r3, r3, #8
 8001110:	704b      	strb	r3, [r1, #1]
 8001112:	88c3      	ldrh	r3, [r0, #6]
 8001114:	708b      	strb	r3, [r1, #2]
 8001116:	79c3      	ldrb	r3, [r0, #7]
 8001118:	70cb      	strb	r3, [r1, #3]
 800111a:	2004      	movs	r0, #4
 800111c:	4770      	bx	lr

0800111e <std_msgs::UInt32::deserialize(unsigned char*)>:
 800111e:	780b      	ldrb	r3, [r1, #0]
 8001120:	6043      	str	r3, [r0, #4]
 8001122:	784a      	ldrb	r2, [r1, #1]
 8001124:	ea43 2302 	orr.w	r3, r3, r2, lsl #8
 8001128:	6043      	str	r3, [r0, #4]
 800112a:	788a      	ldrb	r2, [r1, #2]
 800112c:	ea43 4302 	orr.w	r3, r3, r2, lsl #16
 8001130:	6043      	str	r3, [r0, #4]
 8001132:	78ca      	ldrb	r2, [r1, #3]
 8001134:	ea43 6302 	orr.w	r3, r3, r2, lsl #24
 8001138:	6043      	str	r3, [r0, #4]
 800113a:	2004      	movs	r0, #4
 800113c:	4770      	bx	lr
	...

08001140 <std_msgs::UInt32::getType()>:
 8001140:	4800      	ldr	r0, [pc, #0]	; (8001144 <std_msgs::UInt32::getType()+0x4>)
 8001142:	4770      	bx	lr
 8001144:	080082ea 	.word	0x080082ea

08001148 <std_msgs::UInt32::getMD5()>:
 8001148:	4800      	ldr	r0, [pc, #0]	; (800114c <std_msgs::UInt32::getMD5()+0x4>)
 800114a:	4770      	bx	lr
 800114c:	080082c9 	.word	0x080082c9

08001150 <ros::Subscriber<std_msgs::String, void>::getEndpointType()>:
 8001150:	6980      	ldr	r0, [r0, #24]
 8001152:	4770      	bx	lr

08001154 <ros::Subscriber<std_msgs::String, void>::getMsgType()>:
 8001154:	4800      	ldr	r0, [pc, #0]	; (8001158 <ros::Subscriber<std_msgs::String, void>::getMsgType()+0x4>)
 8001156:	4770      	bx	lr
 8001158:	080082b9 	.word	0x080082b9

0800115c <ros::Subscriber<std_msgs::String, void>::getMsgMD5()>:
 800115c:	4800      	ldr	r0, [pc, #0]	; (8001160 <ros::Subscriber<std_msgs::String, void>::getMsgMD5()+0x4>)
 800115e:	4770      	bx	lr
 8001160:	08008298 	.word	0x08008298

08001164 <std_msgs::String::serialize(unsigned char*) const>:
 8001164:	b570      	push	{r4, r5, r6, lr}
 8001166:	4606      	mov	r6, r0
 8001168:	6840      	ldr	r0, [r0, #4]
 800116a:	460d      	mov	r5, r1
 800116c:	f006 fdc9 	bl	8007d02 <strlen>
 8001170:	4604      	mov	r4, r0
 8001172:	4601      	mov	r1, r0
 8001174:	4628      	mov	r0, r5
 8001176:	f7ff fae3 	bl	8000740 <void ros::Msg::varToArr<unsigned char*, unsigned long>(unsigned char*, unsigned long)>
 800117a:	4622      	mov	r2, r4
 800117c:	6871      	ldr	r1, [r6, #4]
 800117e:	1d28      	adds	r0, r5, #4
 8001180:	f006 face 	bl	8007720 <memcpy>
 8001184:	1d20      	adds	r0, r4, #4
 8001186:	bd70      	pop	{r4, r5, r6, pc}

08001188 <std_msgs::String::deserialize(unsigned char*)>:
 8001188:	b537      	push	{r0, r1, r2, r4, r5, lr}
 800118a:	4605      	mov	r5, r0
 800118c:	a801      	add	r0, sp, #4
 800118e:	460c      	mov	r4, r1
 8001190:	f7ff fbaa 	bl	80008e8 <void ros::Msg::arrToVar<unsigned long, unsigned char*>(unsigned long&, unsigned char*)>
 8001194:	9b01      	ldr	r3, [sp, #4]
 8001196:	1d22      	adds	r2, r4, #4
 8001198:	1d18      	adds	r0, r3, #4
 800119a:	1b11      	subs	r1, r2, r4
 800119c:	4288      	cmp	r0, r1
 800119e:	d904      	bls.n	80011aa <std_msgs::String::deserialize(unsigned char*)+0x22>
 80011a0:	f812 1b01 	ldrb.w	r1, [r2], #1
 80011a4:	f802 1c02 	strb.w	r1, [r2, #-2]
 80011a8:	e7f7      	b.n	800119a <std_msgs::String::deserialize(unsigned char*)+0x12>
 80011aa:	4423      	add	r3, r4
 80011ac:	2200      	movs	r2, #0
 80011ae:	3403      	adds	r4, #3
 80011b0:	70da      	strb	r2, [r3, #3]
 80011b2:	606c      	str	r4, [r5, #4]
 80011b4:	b003      	add	sp, #12
 80011b6:	bd30      	pop	{r4, r5, pc}

080011b8 <ros::Subscriber<std_msgs::String, void>::callback(unsigned char*)>:
 80011b8:	b570      	push	{r4, r5, r6, lr}
 80011ba:	4605      	mov	r5, r0
 80011bc:	f100 040c 	add.w	r4, r0, #12
 80011c0:	4620      	mov	r0, r4
 80011c2:	f7ff ffe1 	bl	8001188 <std_msgs::String::deserialize(unsigned char*)>
 80011c6:	696b      	ldr	r3, [r5, #20]
 80011c8:	4620      	mov	r0, r4
 80011ca:	e8bd 4070 	ldmia.w	sp!, {r4, r5, r6, lr}
 80011ce:	4718      	bx	r3

080011d0 <ros::NodeHandle_<MbedHardware, 25, 25, 512, 512>::log(char, char const*)>:
 80011d0:	b51f      	push	{r0, r1, r2, r3, r4, lr}
 80011d2:	4b06      	ldr	r3, [pc, #24]	; (80011ec <ros::NodeHandle_<MbedHardware, 25, 25, 512, 512>::log(char, char const*)+0x1c>)
 80011d4:	9301      	str	r3, [sp, #4]
 80011d6:	6803      	ldr	r3, [r0, #0]
 80011d8:	f88d 1008 	strb.w	r1, [sp, #8]
 80011dc:	9203      	str	r2, [sp, #12]
 80011de:	681b      	ldr	r3, [r3, #0]
 80011e0:	aa01      	add	r2, sp, #4
 80011e2:	2107      	movs	r1, #7
 80011e4:	4798      	blx	r3
 80011e6:	b005      	add	sp, #20
 80011e8:	f85d fb04 	ldr.w	pc, [sp], #4
 80011ec:	080080e4 	.word	0x080080e4

080011f0 <decodeCb(std_msgs::String const&)>:
 80011f0:	b510      	push	{r4, lr}
 80011f2:	2300      	movs	r3, #0
 80011f4:	4c4b      	ldr	r4, [pc, #300]	; (8001324 <decodeCb(std_msgs::String const&)+0x134>)
 80011f6:	461a      	mov	r2, r3
 80011f8:	551a      	strb	r2, [r3, r4]
 80011fa:	3301      	adds	r3, #1
 80011fc:	2b08      	cmp	r3, #8
 80011fe:	d1fb      	bne.n	80011f8 <decodeCb(std_msgs::String const&)+0x8>
 8001200:	6843      	ldr	r3, [r0, #4]
 8001202:	781a      	ldrb	r2, [r3, #0]
 8001204:	7022      	strb	r2, [r4, #0]
 8001206:	2a53      	cmp	r2, #83	; 0x53
 8001208:	d07f      	beq.n	800130a <decodeCb(std_msgs::String const&)+0x11a>
 800120a:	2a56      	cmp	r2, #86	; 0x56
 800120c:	d054      	beq.n	80012b8 <decodeCb(std_msgs::String const&)+0xc8>
 800120e:	2a4b      	cmp	r2, #75	; 0x4b
 8001210:	d120      	bne.n	8001254 <decodeCb(std_msgs::String const&)+0x64>
 8001212:	785a      	ldrb	r2, [r3, #1]
 8001214:	7062      	strb	r2, [r4, #1]
 8001216:	789a      	ldrb	r2, [r3, #2]
 8001218:	70a2      	strb	r2, [r4, #2]
 800121a:	78db      	ldrb	r3, [r3, #3]
 800121c:	4a41      	ldr	r2, [pc, #260]	; (8001324 <decodeCb(std_msgs::String const&)+0x134>)
 800121e:	4842      	ldr	r0, [pc, #264]	; (8001328 <decodeCb(std_msgs::String const&)+0x138>)
 8001220:	70e3      	strb	r3, [r4, #3]
 8001222:	2101      	movs	r1, #1
 8001224:	f7ff ffd4 	bl	80011d0 <ros::NodeHandle_<MbedHardware, 25, 25, 512, 512>::log(char, char const*)>
 8001228:	7863      	ldrb	r3, [r4, #1]
 800122a:	2b70      	cmp	r3, #112	; 0x70
 800122c:	d11c      	bne.n	8001268 <decodeCb(std_msgs::String const&)+0x78>
 800122e:	78a3      	ldrb	r3, [r4, #2]
 8001230:	3b30      	subs	r3, #48	; 0x30
 8001232:	ee07 3a90 	vmov	s15, r3
 8001236:	78e3      	ldrb	r3, [r4, #3]
 8001238:	3b30      	subs	r3, #48	; 0x30
 800123a:	eeb8 7ae7 	vcvt.f32.s32	s14, s15
 800123e:	ee07 3a90 	vmov	s15, r3
 8001242:	eef8 7ae7 	vcvt.f32.s32	s15, s15
 8001246:	eef2 6a04 	vmov.f32	s13, #36	; 0x41200000  10.0
 800124a:	eee7 7a26 	vfma.f32	s15, s14, s13
 800124e:	4b37      	ldr	r3, [pc, #220]	; (800132c <decodeCb(std_msgs::String const&)+0x13c>)
 8001250:	edc3 7a00 	vstr	s15, [r3]
 8001254:	4b36      	ldr	r3, [pc, #216]	; (8001330 <decodeCb(std_msgs::String const&)+0x140>)
 8001256:	685a      	ldr	r2, [r3, #4]
 8001258:	6811      	ldr	r1, [r2, #0]
 800125a:	681a      	ldr	r2, [r3, #0]
 800125c:	4211      	tst	r1, r2
 800125e:	bf0c      	ite	eq
 8001260:	689b      	ldreq	r3, [r3, #8]
 8001262:	68db      	ldrne	r3, [r3, #12]
 8001264:	601a      	str	r2, [r3, #0]
 8001266:	bd10      	pop	{r4, pc}
 8001268:	2b64      	cmp	r3, #100	; 0x64
 800126a:	d111      	bne.n	8001290 <decodeCb(std_msgs::String const&)+0xa0>
 800126c:	78a3      	ldrb	r3, [r4, #2]
 800126e:	3b30      	subs	r3, #48	; 0x30
 8001270:	ee07 3a90 	vmov	s15, r3
 8001274:	78e3      	ldrb	r3, [r4, #3]
 8001276:	3b30      	subs	r3, #48	; 0x30
 8001278:	eeb8 7ae7 	vcvt.f32.s32	s14, s15
 800127c:	ee07 3a90 	vmov	s15, r3
 8001280:	eef8 7ae7 	vcvt.f32.s32	s15, s15
 8001284:	eef2 6a04 	vmov.f32	s13, #36	; 0x41200000  10.0
 8001288:	eee7 7a26 	vfma.f32	s15, s14, s13
 800128c:	4b29      	ldr	r3, [pc, #164]	; (8001334 <decodeCb(std_msgs::String const&)+0x144>)
 800128e:	e7df      	b.n	8001250 <decodeCb(std_msgs::String const&)+0x60>
 8001290:	2b69      	cmp	r3, #105	; 0x69
 8001292:	d1df      	bne.n	8001254 <decodeCb(std_msgs::String const&)+0x64>
 8001294:	78a3      	ldrb	r3, [r4, #2]
 8001296:	3b30      	subs	r3, #48	; 0x30
 8001298:	ee07 3a90 	vmov	s15, r3
 800129c:	78e3      	ldrb	r3, [r4, #3]
 800129e:	3b30      	subs	r3, #48	; 0x30
 80012a0:	eeb8 7ae7 	vcvt.f32.s32	s14, s15
 80012a4:	ee07 3a90 	vmov	s15, r3
 80012a8:	eef8 7ae7 	vcvt.f32.s32	s15, s15
 80012ac:	eef2 6a04 	vmov.f32	s13, #36	; 0x41200000  10.0
 80012b0:	eee7 7a26 	vfma.f32	s15, s14, s13
 80012b4:	4b20      	ldr	r3, [pc, #128]	; (8001338 <decodeCb(std_msgs::String const&)+0x148>)
 80012b6:	e7cb      	b.n	8001250 <decodeCb(std_msgs::String const&)+0x60>
 80012b8:	785a      	ldrb	r2, [r3, #1]
 80012ba:	7062      	strb	r2, [r4, #1]
 80012bc:	789a      	ldrb	r2, [r3, #2]
 80012be:	70a2      	strb	r2, [r4, #2]
 80012c0:	78db      	ldrb	r3, [r3, #3]
 80012c2:	4a18      	ldr	r2, [pc, #96]	; (8001324 <decodeCb(std_msgs::String const&)+0x134>)
 80012c4:	4818      	ldr	r0, [pc, #96]	; (8001328 <decodeCb(std_msgs::String const&)+0x138>)
 80012c6:	70e3      	strb	r3, [r4, #3]
 80012c8:	2101      	movs	r1, #1
 80012ca:	f7ff ff81 	bl	80011d0 <ros::NodeHandle_<MbedHardware, 25, 25, 512, 512>::log(char, char const*)>
 80012ce:	7863      	ldrb	r3, [r4, #1]
 80012d0:	78a2      	ldrb	r2, [r4, #2]
 80012d2:	eddf 6a1a 	vldr	s13, [pc, #104]	; 800133c <decodeCb(std_msgs::String const&)+0x14c>
 80012d6:	3b30      	subs	r3, #48	; 0x30
 80012d8:	ee07 3a90 	vmov	s15, r3
 80012dc:	3a30      	subs	r2, #48	; 0x30
 80012de:	230a      	movs	r3, #10
 80012e0:	4353      	muls	r3, r2
 80012e2:	eeb8 7ae7 	vcvt.f32.s32	s14, s15
 80012e6:	ee07 3a90 	vmov	s15, r3
 80012ea:	eef8 7ae7 	vcvt.f32.s32	s15, s15
 80012ee:	78e3      	ldrb	r3, [r4, #3]
 80012f0:	eee7 7a26 	vfma.f32	s15, s14, s13
 80012f4:	3b30      	subs	r3, #48	; 0x30
 80012f6:	eeb0 7a67 	vmov.f32	s14, s15
 80012fa:	ee07 3a90 	vmov	s15, r3
 80012fe:	eef8 7ae7 	vcvt.f32.s32	s15, s15
 8001302:	4b0f      	ldr	r3, [pc, #60]	; (8001340 <decodeCb(std_msgs::String const&)+0x150>)
 8001304:	ee77 7a27 	vadd.f32	s15, s14, s15
 8001308:	e7a2      	b.n	8001250 <decodeCb(std_msgs::String const&)+0x60>
 800130a:	785b      	ldrb	r3, [r3, #1]
 800130c:	4a05      	ldr	r2, [pc, #20]	; (8001324 <decodeCb(std_msgs::String const&)+0x134>)
 800130e:	4806      	ldr	r0, [pc, #24]	; (8001328 <decodeCb(std_msgs::String const&)+0x138>)
 8001310:	7063      	strb	r3, [r4, #1]
 8001312:	2101      	movs	r1, #1
 8001314:	f7ff ff5c 	bl	80011d0 <ros::NodeHandle_<MbedHardware, 25, 25, 512, 512>::log(char, char const*)>
 8001318:	7863      	ldrb	r3, [r4, #1]
 800131a:	4a0a      	ldr	r2, [pc, #40]	; (8001344 <decodeCb(std_msgs::String const&)+0x154>)
 800131c:	3b30      	subs	r3, #48	; 0x30
 800131e:	6013      	str	r3, [r2, #0]
 8001320:	e798      	b.n	8001254 <decodeCb(std_msgs::String const&)+0x64>
 8001322:	bf00      	nop
 8001324:	200007c4 	.word	0x200007c4
 8001328:	20000810 	.word	0x20000810
 800132c:	200007f0 	.word	0x200007f0
 8001330:	200007f4 	.word	0x200007f4
 8001334:	200007e8 	.word	0x200007e8
 8001338:	200007ec 	.word	0x200007ec
 800133c:	42c80000 	.word	0x42c80000
 8001340:	20000de4 	.word	0x20000de4
 8001344:	20000dc4 	.word	0x20000dc4

08001348 <_GLOBAL__sub_I_target_vel>:
 8001348:	b537      	push	{r0, r1, r2, r4, r5, lr}
 800134a:	4c3a      	ldr	r4, [pc, #232]	; (8001434 <_GLOBAL__sub_I_target_vel+0xec>)
 800134c:	4b3a      	ldr	r3, [pc, #232]	; (8001438 <_GLOBAL__sub_I_target_vel+0xf0>)
 800134e:	4620      	mov	r0, r4
 8001350:	2500      	movs	r5, #0
 8001352:	f840 3b04 	str.w	r3, [r0], #4
 8001356:	2304      	movs	r3, #4
 8001358:	220f      	movs	r2, #15
 800135a:	2102      	movs	r1, #2
 800135c:	e88d 0028 	stmia.w	sp, {r3, r5}
 8001360:	f44f 7380 	mov.w	r3, #256	; 0x100
 8001364:	f000 fa4a 	bl	80017fc <BufferedSerial::BufferedSerial(PinName, PinName, unsigned long, unsigned long, char const*)>
 8001368:	f104 007c 	add.w	r0, r4, #124	; 0x7c
 800136c:	f004 fdc1 	bl	8005ef2 <mbed::Timer::Timer()>
 8001370:	f44f 4361 	mov.w	r3, #57600	; 0xe100
 8001374:	f104 007c 	add.w	r0, r4, #124	; 0x7c
 8001378:	67a3      	str	r3, [r4, #120]	; 0x78
 800137a:	f004 fd68 	bl	8005e4e <mbed::Timer::start()>
 800137e:	4b2f      	ldr	r3, [pc, #188]	; (800143c <_GLOBAL__sub_I_target_vel+0xf4>)
 8001380:	f884 5578 	strb.w	r5, [r4, #1400]	; 0x578
 8001384:	f8c4 358c 	str.w	r3, [r4, #1420]	; 0x58c
 8001388:	f8c4 5590 	str.w	r5, [r4, #1424]	; 0x590
 800138c:	f8c4 5598 	str.w	r5, [r4, #1432]	; 0x598
 8001390:	f8c4 559c 	str.w	r5, [r4, #1436]	; 0x59c
 8001394:	f8c4 55a4 	str.w	r5, [r4, #1444]	; 0x5a4
 8001398:	f8c4 55a8 	str.w	r5, [r4, #1448]	; 0x5a8
 800139c:	f8c4 55b0 	str.w	r5, [r4, #1456]	; 0x5b0
 80013a0:	462a      	mov	r2, r5
 80013a2:	1963      	adds	r3, r4, r5
 80013a4:	3504      	adds	r5, #4
 80013a6:	2d64      	cmp	r5, #100	; 0x64
 80013a8:	f8c3 249c 	str.w	r2, [r3, #1180]	; 0x49c
 80013ac:	d1f9      	bne.n	80013a2 <_GLOBAL__sub_I_target_vel+0x5a>
 80013ae:	2300      	movs	r3, #0
 80013b0:	4619      	mov	r1, r3
 80013b2:	18e2      	adds	r2, r4, r3
 80013b4:	3304      	adds	r3, #4
 80013b6:	2b64      	cmp	r3, #100	; 0x64
 80013b8:	f8c2 1500 	str.w	r1, [r2, #1280]	; 0x500
 80013bc:	d1f9      	bne.n	80013b2 <_GLOBAL__sub_I_target_vel+0x6a>
 80013be:	2300      	movs	r3, #0
 80013c0:	4619      	mov	r1, r3
 80013c2:	18e2      	adds	r2, r4, r3
 80013c4:	3301      	adds	r3, #1
 80013c6:	f5b3 7f00 	cmp.w	r3, #512	; 0x200
 80013ca:	f882 109c 	strb.w	r1, [r2, #156]	; 0x9c
 80013ce:	d1f8      	bne.n	80013c2 <_GLOBAL__sub_I_target_vel+0x7a>
 80013d0:	2300      	movs	r3, #0
 80013d2:	461d      	mov	r5, r3
 80013d4:	18e2      	adds	r2, r4, r3
 80013d6:	3301      	adds	r3, #1
 80013d8:	f5b3 7f00 	cmp.w	r3, #512	; 0x200
 80013dc:	f882 529c 	strb.w	r5, [r2, #668]	; 0x29c
 80013e0:	d1f8      	bne.n	80013d4 <_GLOBAL__sub_I_target_vel+0x8c>
 80013e2:	4a17      	ldr	r2, [pc, #92]	; (8001440 <_GLOBAL__sub_I_target_vel+0xf8>)
 80013e4:	4917      	ldr	r1, [pc, #92]	; (8001444 <_GLOBAL__sub_I_target_vel+0xfc>)
 80013e6:	4813      	ldr	r0, [pc, #76]	; (8001434 <_GLOBAL__sub_I_target_vel+0xec>)
 80013e8:	f8c4 5098 	str.w	r5, [r4, #152]	; 0x98
 80013ec:	f004 ff0e 	bl	800620c <__aeabi_atexit>
 80013f0:	221c      	movs	r2, #28
 80013f2:	2100      	movs	r1, #0
 80013f4:	4814      	ldr	r0, [pc, #80]	; (8001448 <_GLOBAL__sub_I_target_vel+0x100>)
 80013f6:	f006 f9b8 	bl	800776a <memset>
 80013fa:	2113      	movs	r1, #19
 80013fc:	4812      	ldr	r0, [pc, #72]	; (8001448 <_GLOBAL__sub_I_target_vel+0x100>)
 80013fe:	f000 fb3e 	bl	8001a7e <gpio_init_out>
 8001402:	4a12      	ldr	r2, [pc, #72]	; (800144c <_GLOBAL__sub_I_target_vel+0x104>)
 8001404:	4b12      	ldr	r3, [pc, #72]	; (8001450 <_GLOBAL__sub_I_target_vel+0x108>)
 8001406:	4913      	ldr	r1, [pc, #76]	; (8001454 <_GLOBAL__sub_I_target_vel+0x10c>)
 8001408:	e882 0028 	stmia.w	r2, {r3, r5}
 800140c:	4b12      	ldr	r3, [pc, #72]	; (8001458 <_GLOBAL__sub_I_target_vel+0x110>)
 800140e:	e883 0006 	stmia.w	r3, {r1, r2}
 8001412:	611d      	str	r5, [r3, #16]
 8001414:	4b11      	ldr	r3, [pc, #68]	; (800145c <_GLOBAL__sub_I_target_vel+0x114>)
 8001416:	4a12      	ldr	r2, [pc, #72]	; (8001460 <_GLOBAL__sub_I_target_vel+0x118>)
 8001418:	601a      	str	r2, [r3, #0]
 800141a:	4a12      	ldr	r2, [pc, #72]	; (8001464 <_GLOBAL__sub_I_target_vel+0x11c>)
 800141c:	60da      	str	r2, [r3, #12]
 800141e:	4a12      	ldr	r2, [pc, #72]	; (8001468 <_GLOBAL__sub_I_target_vel+0x120>)
 8001420:	611a      	str	r2, [r3, #16]
 8001422:	4a12      	ldr	r2, [pc, #72]	; (800146c <_GLOBAL__sub_I_target_vel+0x124>)
 8001424:	615a      	str	r2, [r3, #20]
 8001426:	2201      	movs	r2, #1
 8001428:	619a      	str	r2, [r3, #24]
 800142a:	4a11      	ldr	r2, [pc, #68]	; (8001470 <_GLOBAL__sub_I_target_vel+0x128>)
 800142c:	609a      	str	r2, [r3, #8]
 800142e:	b003      	add	sp, #12
 8001430:	bd30      	pop	{r4, r5, pc}
 8001432:	bf00      	nop
 8001434:	20000810 	.word	0x20000810
 8001438:	08008114 	.word	0x08008114
 800143c:	080080fc 	.word	0x080080fc
 8001440:	20000000 	.word	0x20000000
 8001444:	080010e1 	.word	0x080010e1
 8001448:	200007f4 	.word	0x200007f4
 800144c:	200007e0 	.word	0x200007e0
 8001450:	08008260 	.word	0x08008260
 8001454:	08008288 	.word	0x08008288
 8001458:	200007cc 	.word	0x200007cc
 800145c:	20000dc8 	.word	0x20000dc8
 8001460:	08008278 	.word	0x08008278
 8001464:	08008248 	.word	0x08008248
 8001468:	08008391 	.word	0x08008391
 800146c:	080011f1 	.word	0x080011f1
 8001470:	08008290 	.word	0x08008290
 8001474:	00000000 	.word	0x00000000

08001478 <decode()>:
 8001478:	4c2f      	ldr	r4, [pc, #188]	; (8001538 <decode()+0xc0>)
 800147a:	b580      	push	{r7, lr}
 800147c:	6fa1      	ldr	r1, [r4, #120]	; 0x78
 800147e:	1d20      	adds	r0, r4, #4
 8001480:	f004 fb73 	bl	8005b6a <mbed::SerialBase::baud(int)>
 8001484:	2300      	movs	r3, #0
 8001486:	f8c4 3564 	str.w	r3, [r4, #1380]	; 0x564
 800148a:	f8c4 3568 	str.w	r3, [r4, #1384]	; 0x568
 800148e:	f8c4 3570 	str.w	r3, [r4, #1392]	; 0x570
 8001492:	f8c4 356c 	str.w	r3, [r4, #1388]	; 0x56c
 8001496:	f204 42fc 	addw	r2, r4, #1276	; 0x4fc
 800149a:	f852 1f04 	ldr.w	r1, [r2, #4]!
 800149e:	2900      	cmp	r1, #0
 80014a0:	d13e      	bne.n	8001520 <decode()+0xa8>
 80014a2:	f503 71a0 	add.w	r1, r3, #320	; 0x140
 80014a6:	4a25      	ldr	r2, [pc, #148]	; (800153c <decode()+0xc4>)
 80014a8:	f844 2021 	str.w	r2, [r4, r1, lsl #2]
 80014ac:	3364      	adds	r3, #100	; 0x64
 80014ae:	6053      	str	r3, [r2, #4]
 80014b0:	4a23      	ldr	r2, [pc, #140]	; (8001540 <decode()+0xc8>)
 80014b2:	2300      	movs	r3, #0
 80014b4:	f852 1f04 	ldr.w	r1, [r2, #4]!
 80014b8:	2900      	cmp	r1, #0
 80014ba:	d135      	bne.n	8001528 <decode()+0xb0>
 80014bc:	4a21      	ldr	r2, [pc, #132]	; (8001544 <decode()+0xcc>)
 80014be:	eb04 0183 	add.w	r1, r4, r3, lsl #2
 80014c2:	337d      	adds	r3, #125	; 0x7d
 80014c4:	f8c1 249c 	str.w	r2, [r1, #1180]	; 0x49c
 80014c8:	6093      	str	r3, [r2, #8]
 80014ca:	60d4      	str	r4, [r2, #12]
 80014cc:	a718      	add	r7, pc, #96	; (adr r7, 8001530 <decode()+0xb8>)
 80014ce:	e9d7 6700 	ldrd	r6, r7, [r7]
 80014d2:	f8df 9078 	ldr.w	r9, [pc, #120]	; 800154c <decode()+0xd4>
 80014d6:	4d1c      	ldr	r5, [pc, #112]	; (8001548 <decode()+0xd0>)
 80014d8:	2400      	movs	r4, #0
 80014da:	f8d9 0000 	ldr.w	r0, [r9]
 80014de:	f8df 8070 	ldr.w	r8, [pc, #112]	; 8001550 <decode()+0xd8>
 80014e2:	f005 f9f9 	bl	80068d8 <__aeabi_ui2d>
 80014e6:	4632      	mov	r2, r6
 80014e8:	463b      	mov	r3, r7
 80014ea:	f005 fa6b 	bl	80069c4 <__aeabi_dmul>
 80014ee:	4602      	mov	r2, r0
 80014f0:	460b      	mov	r3, r1
 80014f2:	4620      	mov	r0, r4
 80014f4:	4629      	mov	r1, r5
 80014f6:	f005 fb8f 	bl	8006c18 <__aeabi_ddiv>
 80014fa:	f005 fcfd 	bl	8006ef8 <__aeabi_d2uiz>
 80014fe:	4b11      	ldr	r3, [pc, #68]	; (8001544 <decode()+0xcc>)
 8001500:	f8c8 0004 	str.w	r0, [r8, #4]
 8001504:	68d8      	ldr	r0, [r3, #12]
 8001506:	6899      	ldr	r1, [r3, #8]
 8001508:	6802      	ldr	r2, [r0, #0]
 800150a:	f8d2 a000 	ldr.w	r10, [r2]
 800150e:	4642      	mov	r2, r8
 8001510:	47d0      	blx	r10
 8001512:	4809      	ldr	r0, [pc, #36]	; (8001538 <decode()+0xc0>)
 8001514:	f7ff fc74 	bl	8000e00 <ros::NodeHandle_<MbedHardware, 25, 25, 512, 512>::spinOnce()>
 8001518:	200a      	movs	r0, #10
 800151a:	f004 fd75 	bl	8006008 <wait_ms>
 800151e:	e7dc      	b.n	80014da <decode()+0x62>
 8001520:	3301      	adds	r3, #1
 8001522:	2b19      	cmp	r3, #25
 8001524:	d1b9      	bne.n	800149a <decode()+0x22>
 8001526:	e7c3      	b.n	80014b0 <decode()+0x38>
 8001528:	3301      	adds	r3, #1
 800152a:	2b19      	cmp	r3, #25
 800152c:	d1c2      	bne.n	80014b4 <decode()+0x3c>
 800152e:	e7cd      	b.n	80014cc <decode()+0x54>
 8001530:	a0b5ed8d 	.word	0xa0b5ed8d
 8001534:	3eb0c6f7 	.word	0x3eb0c6f7
 8001538:	20000810 	.word	0x20000810
 800153c:	20000dc8 	.word	0x20000dc8
 8001540:	20000ca8 	.word	0x20000ca8
 8001544:	200007cc 	.word	0x200007cc
 8001548:	3ff00000 	.word	0x3ff00000
 800154c:	2000017c 	.word	0x2000017c
 8001550:	200007e0 	.word	0x200007e0

08001554 <main>:
 8001554:	b51f      	push	{r0, r1, r2, r3, r4, lr}
 8001556:	4b0d      	ldr	r3, [pc, #52]	; (800158c <main+0x38>)
 8001558:	b993      	cbnz	r3, 8001580 <main+0x2c>
 800155a:	4669      	mov	r1, sp
 800155c:	480c      	ldr	r0, [pc, #48]	; (8001590 <main+0x3c>)
 800155e:	9303      	str	r3, [sp, #12]
 8001560:	f004 fef2 	bl	8006348 <rtos::Thread::start(mbed::Callback<void ()>)>
 8001564:	4668      	mov	r0, sp
 8001566:	f7ff f805 	bl	8000574 <mbed::Callback<void ()>::~Callback()>
 800156a:	4b0a      	ldr	r3, [pc, #40]	; (8001594 <main+0x40>)
 800156c:	b95b      	cbnz	r3, 8001586 <main+0x32>
 800156e:	4669      	mov	r1, sp
 8001570:	4809      	ldr	r0, [pc, #36]	; (8001598 <main+0x44>)
 8001572:	9303      	str	r3, [sp, #12]
 8001574:	f004 fee8 	bl	8006348 <rtos::Thread::start(mbed::Callback<void ()>)>
 8001578:	4668      	mov	r0, sp
 800157a:	f7fe fffb 	bl	8000574 <mbed::Callback<void ()>::~Callback()>
 800157e:	e7fe      	b.n	800157e <main+0x2a>
 8001580:	9300      	str	r3, [sp, #0]
 8001582:	4b06      	ldr	r3, [pc, #24]	; (800159c <main+0x48>)
 8001584:	e7e9      	b.n	800155a <main+0x6>
 8001586:	9300      	str	r3, [sp, #0]
 8001588:	4b04      	ldr	r3, [pc, #16]	; (800159c <main+0x48>)
 800158a:	e7f0      	b.n	800156e <main+0x1a>
 800158c:	08000659 	.word	0x08000659
 8001590:	20000de8 	.word	0x20000de8
 8001594:	08001479 	.word	0x08001479
 8001598:	20000e40 	.word	0x20000e40
 800159c:	08008120 	.word	0x08008120

080015a0 <_GLOBAL__sub_I_controlthread>:
 80015a0:	e92d 41f0 	stmdb	sp!, {r4, r5, r6, r7, r8, lr}
 80015a4:	4d1c      	ldr	r5, [pc, #112]	; (8001618 <_GLOBAL__sub_I_controlthread+0x78>)
 80015a6:	f8df 8080 	ldr.w	r8, [pc, #128]	; 8001628 <_GLOBAL__sub_I_controlthread+0x88>
 80015aa:	f8c5 8000 	str.w	r8, [r5]
 80015ae:	2400      	movs	r4, #0
 80015b0:	4621      	mov	r1, r4
 80015b2:	612c      	str	r4, [r5, #16]
 80015b4:	f105 002c 	add.w	r0, r5, #44	; 0x2c
 80015b8:	f004 ff24 	bl	8006404 <rtos::Semaphore::Semaphore(long)>
 80015bc:	f105 003c 	add.w	r0, r5, #60	; 0x3c
 80015c0:	f004 ff38 	bl	8006434 <rtos::Mutex::Mutex()>
 80015c4:	4f15      	ldr	r7, [pc, #84]	; (800161c <_GLOBAL__sub_I_controlthread+0x7c>)
 80015c6:	4e16      	ldr	r6, [pc, #88]	; (8001620 <_GLOBAL__sub_I_controlthread+0x80>)
 80015c8:	4623      	mov	r3, r4
 80015ca:	4621      	mov	r1, r4
 80015cc:	4628      	mov	r0, r5
 80015ce:	f44f 6280 	mov.w	r2, #1024	; 0x400
 80015d2:	f004 fe5b 	bl	800628c <rtos::Thread::constructor(osPriority, unsigned long, unsigned char*)>
 80015d6:	4628      	mov	r0, r5
 80015d8:	4d12      	ldr	r5, [pc, #72]	; (8001624 <_GLOBAL__sub_I_controlthread+0x84>)
 80015da:	463a      	mov	r2, r7
 80015dc:	4631      	mov	r1, r6
 80015de:	f004 fe15 	bl	800620c <__aeabi_atexit>
 80015e2:	4621      	mov	r1, r4
 80015e4:	612c      	str	r4, [r5, #16]
 80015e6:	f105 002c 	add.w	r0, r5, #44	; 0x2c
 80015ea:	f8c5 8000 	str.w	r8, [r5]
 80015ee:	f004 ff09 	bl	8006404 <rtos::Semaphore::Semaphore(long)>
 80015f2:	f105 003c 	add.w	r0, r5, #60	; 0x3c
 80015f6:	f004 ff1d 	bl	8006434 <rtos::Mutex::Mutex()>
 80015fa:	4621      	mov	r1, r4
 80015fc:	4628      	mov	r0, r5
 80015fe:	4623      	mov	r3, r4
 8001600:	f44f 6280 	mov.w	r2, #1024	; 0x400
 8001604:	f004 fe42 	bl	800628c <rtos::Thread::constructor(osPriority, unsigned long, unsigned char*)>
 8001608:	463a      	mov	r2, r7
 800160a:	4631      	mov	r1, r6
 800160c:	4628      	mov	r0, r5
 800160e:	e8bd 41f0 	ldmia.w	sp!, {r4, r5, r6, r7, r8, lr}
 8001612:	f004 bdfb 	b.w	800620c <__aeabi_atexit>
 8001616:	bf00      	nop
 8001618:	20000de8 	.word	0x20000de8
 800161c:	20000000 	.word	0x20000000
 8001620:	080062f9 	.word	0x080062f9
 8001624:	20000e40 	.word	0x20000e40
 8001628:	08008854 	.word	0x08008854

0800162c <_start>:
 800162c:	4807      	ldr	r0, [pc, #28]	; (800164c <_start+0x20>)
 800162e:	4a08      	ldr	r2, [pc, #32]	; (8001650 <_start+0x24>)
 8001630:	b508      	push	{r3, lr}
 8001632:	1a12      	subs	r2, r2, r0
 8001634:	2100      	movs	r1, #0
 8001636:	f006 f898 	bl	800776a <memset>
 800163a:	f004 fda5 	bl	8006188 <software_init_hook>
 800163e:	f005 ffe7 	bl	8007610 <__libc_init_array>
 8001642:	f004 fda8 	bl	8006196 <__wrap_main>
 8001646:	f004 fde3 	bl	8006210 <__wrap_exit>
 800164a:	bf00      	nop
 800164c:	200000a8 	.word	0x200000a8
 8001650:	200030c8 	.word	0x200030c8

08001654 <abort>:
 8001654:	b508      	push	{r3, lr}
 8001656:	2001      	movs	r0, #1
 8001658:	f004 fdda 	bl	8006210 <__wrap_exit>

0800165c <__cxa_pure_virtual>:
 800165c:	b508      	push	{r3, lr}
 800165e:	f7ff fff9 	bl	8001654 <abort>
	...

08001664 <ros::normalizeSecNSec(unsigned long&, unsigned long&)>:
 8001664:	b530      	push	{r4, r5, lr}
 8001666:	6802      	ldr	r2, [r0, #0]
 8001668:	680d      	ldr	r5, [r1, #0]
 800166a:	4c04      	ldr	r4, [pc, #16]	; (800167c <ros::normalizeSecNSec(unsigned long&, unsigned long&)+0x18>)
 800166c:	fbb5 f3f4 	udiv	r3, r5, r4
 8001670:	441a      	add	r2, r3
 8001672:	fb04 5313 	mls	r3, r4, r3, r5
 8001676:	6002      	str	r2, [r0, #0]
 8001678:	600b      	str	r3, [r1, #0]
 800167a:	bd30      	pop	{r4, r5, pc}
 800167c:	3b9aca00 	.word	0x3b9aca00

08001680 <BufferedSerial::readable()>:
 8001680:	6d02      	ldr	r2, [r0, #80]	; 0x50
 8001682:	6d40      	ldr	r0, [r0, #84]	; 0x54
 8001684:	1a10      	subs	r0, r2, r0
 8001686:	bf18      	it	ne
 8001688:	2001      	movne	r0, #1
 800168a:	4770      	bx	lr

0800168c <BufferedSerial::writeable()>:
 800168c:	2001      	movs	r0, #1
 800168e:	4770      	bx	lr

08001690 <BufferedSerial::getc()>:
 8001690:	b510      	push	{r4, lr}
 8001692:	6d42      	ldr	r2, [r0, #84]	; 0x54
 8001694:	6cc1      	ldr	r1, [r0, #76]	; 0x4c
 8001696:	4603      	mov	r3, r0
 8001698:	1c50      	adds	r0, r2, #1
 800169a:	6558      	str	r0, [r3, #84]	; 0x54
 800169c:	5c88      	ldrb	r0, [r1, r2]
 800169e:	6d9a      	ldr	r2, [r3, #88]	; 0x58
 80016a0:	6d5c      	ldr	r4, [r3, #84]	; 0x54
 80016a2:	3a01      	subs	r2, #1
 80016a4:	fbb4 f1f2 	udiv	r1, r4, r2
 80016a8:	fb02 4211 	mls	r2, r2, r1, r4
 80016ac:	655a      	str	r2, [r3, #84]	; 0x54
 80016ae:	bd10      	pop	{r4, pc}

080016b0 <void mbed::Callback<void ()>::function_move<mbed::Callback<void ()>::method_context<BufferedSerial, void (BufferedSerial::*)()> >(void*, void const*)>:
 80016b0:	4603      	mov	r3, r0
 80016b2:	b110      	cbz	r0, 80016ba <void mbed::Callback<void ()>::function_move<mbed::Callback<void ()>::method_context<BufferedSerial, void (BufferedSerial::*)()> >(void*, void const*)+0xa>
 80016b4:	c907      	ldmia	r1, {r0, r1, r2}
 80016b6:	e883 0007 	stmia.w	r3, {r0, r1, r2}
 80016ba:	4770      	bx	lr

080016bc <void mbed::Callback<void ()>::function_dtor<mbed::Callback<void ()>::method_context<BufferedSerial, void (BufferedSerial::*)()> >(void*)>:
 80016bc:	4770      	bx	lr

080016be <void mbed::Callback<void ()>::function_call<mbed::Callback<void ()>::method_context<BufferedSerial, void (BufferedSerial::*)()> >(void const*)>:
 80016be:	6842      	ldr	r2, [r0, #4]
 80016c0:	6881      	ldr	r1, [r0, #8]
 80016c2:	6803      	ldr	r3, [r0, #0]
 80016c4:	f012 0f01 	tst.w	r2, #1
 80016c8:	ea4f 0262 	mov.w	r2, r2, asr #1
 80016cc:	bf1c      	itt	ne
 80016ce:	5888      	ldrne	r0, [r1, r2]
 80016d0:	58c3      	ldrne	r3, [r0, r3]
 80016d2:	1888      	adds	r0, r1, r2
 80016d4:	4718      	bx	r3
	...

080016d8 <mbed::SerialBase::~SerialBase()>:
 80016d8:	b570      	push	{r4, r5, r6, lr}
 80016da:	4605      	mov	r5, r0
 80016dc:	4b07      	ldr	r3, [pc, #28]	; (80016fc <mbed::SerialBase::~SerialBase()+0x24>)
 80016de:	f845 3b28 	str.w	r3, [r5], #40
 80016e2:	4606      	mov	r6, r0
 80016e4:	b145      	cbz	r5, 80016f8 <mbed::SerialBase::~SerialBase()+0x20>
 80016e6:	f100 0448 	add.w	r4, r0, #72	; 0x48
 80016ea:	42ac      	cmp	r4, r5
 80016ec:	d004      	beq.n	80016f8 <mbed::SerialBase::~SerialBase()+0x20>
 80016ee:	3c10      	subs	r4, #16
 80016f0:	4620      	mov	r0, r4
 80016f2:	f7fe ff3f 	bl	8000574 <mbed::Callback<void ()>::~Callback()>
 80016f6:	e7f8      	b.n	80016ea <mbed::SerialBase::~SerialBase()+0x12>
 80016f8:	4630      	mov	r0, r6
 80016fa:	bd70      	pop	{r4, r5, r6, pc}
 80016fc:	080087e0 	.word	0x080087e0

08001700 <mbed::SerialBase::~SerialBase()>:
 8001700:	b510      	push	{r4, lr}
 8001702:	4604      	mov	r4, r0
 8001704:	f7ff ffe8 	bl	80016d8 <mbed::SerialBase::~SerialBase()>
 8001708:	4620      	mov	r0, r4
 800170a:	f004 fd9d 	bl	8006248 <operator delete(void*)>
 800170e:	4620      	mov	r0, r4
 8001710:	bd10      	pop	{r4, pc}
	...

08001714 <BufferedSerial::~BufferedSerial()>:
 8001714:	b530      	push	{r4, r5, lr}
 8001716:	4b13      	ldr	r3, [pc, #76]	; (8001764 <BufferedSerial::~BufferedSerial()+0x50>)
 8001718:	6003      	str	r3, [r0, #0]
 800171a:	b085      	sub	sp, #20
 800171c:	2500      	movs	r5, #0
 800171e:	462a      	mov	r2, r5
 8001720:	4669      	mov	r1, sp
 8001722:	4604      	mov	r4, r0
 8001724:	9503      	str	r5, [sp, #12]
 8001726:	f004 fa77 	bl	8005c18 <mbed::SerialBase::attach(mbed::Callback<void ()>, mbed::SerialBase::IrqType)>
 800172a:	4668      	mov	r0, sp
 800172c:	f7fe ff22 	bl	8000574 <mbed::Callback<void ()>::~Callback()>
 8001730:	2201      	movs	r2, #1
 8001732:	4669      	mov	r1, sp
 8001734:	4620      	mov	r0, r4
 8001736:	9503      	str	r5, [sp, #12]
 8001738:	f004 fa6e 	bl	8005c18 <mbed::SerialBase::attach(mbed::Callback<void ()>, mbed::SerialBase::IrqType)>
 800173c:	4668      	mov	r0, sp
 800173e:	f7fe ff19 	bl	8000574 <mbed::Callback<void ()>::~Callback()>
 8001742:	f104 005c 	add.w	r0, r4, #92	; 0x5c
 8001746:	f000 f945 	bl	80019d4 <Buffer<char>::~Buffer()>
 800174a:	f104 004c 	add.w	r0, r4, #76	; 0x4c
 800174e:	f000 f941 	bl	80019d4 <Buffer<char>::~Buffer()>
 8001752:	4b05      	ldr	r3, [pc, #20]	; (8001768 <BufferedSerial::~BufferedSerial()+0x54>)
 8001754:	6023      	str	r3, [r4, #0]
 8001756:	4620      	mov	r0, r4
 8001758:	f7ff ffbe 	bl	80016d8 <mbed::SerialBase::~SerialBase()>
 800175c:	4620      	mov	r0, r4
 800175e:	b005      	add	sp, #20
 8001760:	bd30      	pop	{r4, r5, pc}
 8001762:	bf00      	nop
 8001764:	0800839c 	.word	0x0800839c
 8001768:	080087f8 	.word	0x080087f8

0800176c <BufferedSerial::~BufferedSerial()>:
 800176c:	b510      	push	{r4, lr}
 800176e:	4604      	mov	r4, r0
 8001770:	f7ff ffd0 	bl	8001714 <BufferedSerial::~BufferedSerial()>
 8001774:	4620      	mov	r0, r4
 8001776:	f004 fd67 	bl	8006248 <operator delete(void*)>
 800177a:	4620      	mov	r0, r4
 800177c:	bd10      	pop	{r4, pc}

0800177e <BufferedSerial::txIrq()>:
 800177e:	b530      	push	{r4, r5, lr}
 8001780:	4604      	mov	r4, r0
 8001782:	b085      	sub	sp, #20
 8001784:	1d05      	adds	r5, r0, #4
 8001786:	4628      	mov	r0, r5
 8001788:	f002 ff36 	bl	80045f8 <serial_writable>
 800178c:	b1f0      	cbz	r0, 80017cc <BufferedSerial::txIrq()+0x4e>
 800178e:	6e22      	ldr	r2, [r4, #96]	; 0x60
 8001790:	6e63      	ldr	r3, [r4, #100]	; 0x64
 8001792:	429a      	cmp	r2, r3
 8001794:	d010      	beq.n	80017b8 <BufferedSerial::txIrq()+0x3a>
 8001796:	6e63      	ldr	r3, [r4, #100]	; 0x64
 8001798:	6de2      	ldr	r2, [r4, #92]	; 0x5c
 800179a:	1c59      	adds	r1, r3, #1
 800179c:	6661      	str	r1, [r4, #100]	; 0x64
 800179e:	5cd1      	ldrb	r1, [r2, r3]
 80017a0:	6ea3      	ldr	r3, [r4, #104]	; 0x68
 80017a2:	6e60      	ldr	r0, [r4, #100]	; 0x64
 80017a4:	3b01      	subs	r3, #1
 80017a6:	fbb0 f2f3 	udiv	r2, r0, r3
 80017aa:	fb03 0312 	mls	r3, r3, r2, r0
 80017ae:	6663      	str	r3, [r4, #100]	; 0x64
 80017b0:	4628      	mov	r0, r5
 80017b2:	f002 ff2d 	bl	8004610 <serial_putc>
 80017b6:	e7e6      	b.n	8001786 <BufferedSerial::txIrq()+0x8>
 80017b8:	2300      	movs	r3, #0
 80017ba:	4620      	mov	r0, r4
 80017bc:	2201      	movs	r2, #1
 80017be:	4669      	mov	r1, sp
 80017c0:	9303      	str	r3, [sp, #12]
 80017c2:	f004 fa29 	bl	8005c18 <mbed::SerialBase::attach(mbed::Callback<void ()>, mbed::SerialBase::IrqType)>
 80017c6:	4668      	mov	r0, sp
 80017c8:	f7fe fed4 	bl	8000574 <mbed::Callback<void ()>::~Callback()>
 80017cc:	b005      	add	sp, #20
 80017ce:	bd30      	pop	{r4, r5, pc}

080017d0 <void mbed::SerialBase::attach<BufferedSerial>(BufferedSerial*, void (BufferedSerial::*)(), mbed::SerialBase::IrqType)>:
 80017d0:	b510      	push	{r4, lr}
 80017d2:	b086      	sub	sp, #24
 80017d4:	e88d 000c 	stmia.w	sp, {r2, r3}
 80017d8:	9b01      	ldr	r3, [sp, #4]
 80017da:	9202      	str	r2, [sp, #8]
 80017dc:	9303      	str	r3, [sp, #12]
 80017de:	9104      	str	r1, [sp, #16]
 80017e0:	4b05      	ldr	r3, [pc, #20]	; (80017f8 <void mbed::SerialBase::attach<BufferedSerial>(BufferedSerial*, void (BufferedSerial::*)(), mbed::SerialBase::IrqType)+0x28>)
 80017e2:	f89d 2020 	ldrb.w	r2, [sp, #32]
 80017e6:	9305      	str	r3, [sp, #20]
 80017e8:	a902      	add	r1, sp, #8
 80017ea:	f004 fa15 	bl	8005c18 <mbed::SerialBase::attach(mbed::Callback<void ()>, mbed::SerialBase::IrqType)>
 80017ee:	a802      	add	r0, sp, #8
 80017f0:	f7fe fec0 	bl	8000574 <mbed::Callback<void ()>::~Callback()>
 80017f4:	b006      	add	sp, #24
 80017f6:	bd10      	pop	{r4, pc}
 80017f8:	080082fc 	.word	0x080082fc

080017fc <BufferedSerial::BufferedSerial(PinName, PinName, unsigned long, unsigned long, char const*)>:
 80017fc:	b57f      	push	{r0, r1, r2, r3, r4, r5, r6, lr}
 80017fe:	4604      	mov	r4, r0
 8001800:	461d      	mov	r5, r3
 8001802:	f44f 5316 	mov.w	r3, #9600	; 0x2580
 8001806:	9e08      	ldr	r6, [sp, #32]
 8001808:	f004 fa52 	bl	8005cb0 <mbed::RawSerial::RawSerial(PinName, PinName, int)>
 800180c:	4620      	mov	r0, r4
 800180e:	4b0e      	ldr	r3, [pc, #56]	; (8001848 <BufferedSerial::BufferedSerial(PinName, PinName, unsigned long, unsigned long, char const*)+0x4c>)
 8001810:	f840 3b4c 	str.w	r3, [r0], #76
 8001814:	4629      	mov	r1, r5
 8001816:	f000 f8ec 	bl	80019f2 <Buffer<char>::Buffer(unsigned long)>
 800181a:	fb06 f105 	mul.w	r1, r6, r5
 800181e:	f104 005c 	add.w	r0, r4, #92	; 0x5c
 8001822:	f000 f8e6 	bl	80019f2 <Buffer<char>::Buffer(unsigned long)>
 8001826:	4b09      	ldr	r3, [pc, #36]	; (800184c <BufferedSerial::BufferedSerial(PinName, PinName, unsigned long, unsigned long, char const*)+0x50>)
 8001828:	9302      	str	r3, [sp, #8]
 800182a:	2300      	movs	r3, #0
 800182c:	9303      	str	r3, [sp, #12]
 800182e:	9300      	str	r3, [sp, #0]
 8001830:	ab04      	add	r3, sp, #16
 8001832:	4620      	mov	r0, r4
 8001834:	e913 000c 	ldmdb	r3, {r2, r3}
 8001838:	4621      	mov	r1, r4
 800183a:	f7ff ffc9 	bl	80017d0 <void mbed::SerialBase::attach<BufferedSerial>(BufferedSerial*, void (BufferedSerial::*)(), mbed::SerialBase::IrqType)>
 800183e:	4620      	mov	r0, r4
 8001840:	66e5      	str	r5, [r4, #108]	; 0x6c
 8001842:	6726      	str	r6, [r4, #112]	; 0x70
 8001844:	b004      	add	sp, #16
 8001846:	bd70      	pop	{r4, r5, r6, pc}
 8001848:	0800839c 	.word	0x0800839c
 800184c:	080018b7 	.word	0x080018b7

08001850 <BufferedSerial::prime()>:
 8001850:	b570      	push	{r4, r5, r6, lr}
 8001852:	4604      	mov	r4, r0
 8001854:	b086      	sub	sp, #24
 8001856:	3004      	adds	r0, #4
 8001858:	f002 fece 	bl	80045f8 <serial_writable>
 800185c:	b1c0      	cbz	r0, 8001890 <BufferedSerial::prime()+0x40>
 800185e:	ad02      	add	r5, sp, #8
 8001860:	2201      	movs	r2, #1
 8001862:	4629      	mov	r1, r5
 8001864:	2600      	movs	r6, #0
 8001866:	4620      	mov	r0, r4
 8001868:	9605      	str	r6, [sp, #20]
 800186a:	f004 f9d5 	bl	8005c18 <mbed::SerialBase::attach(mbed::Callback<void ()>, mbed::SerialBase::IrqType)>
 800186e:	4628      	mov	r0, r5
 8001870:	f7fe fe80 	bl	8000574 <mbed::Callback<void ()>::~Callback()>
 8001874:	4620      	mov	r0, r4
 8001876:	f7ff ff82 	bl	800177e <BufferedSerial::txIrq()>
 800187a:	4b06      	ldr	r3, [pc, #24]	; (8001894 <BufferedSerial::prime()+0x44>)
 800187c:	9302      	str	r3, [sp, #8]
 800187e:	2301      	movs	r3, #1
 8001880:	9603      	str	r6, [sp, #12]
 8001882:	9300      	str	r3, [sp, #0]
 8001884:	e895 000c 	ldmia.w	r5, {r2, r3}
 8001888:	4621      	mov	r1, r4
 800188a:	4620      	mov	r0, r4
 800188c:	f7ff ffa0 	bl	80017d0 <void mbed::SerialBase::attach<BufferedSerial>(BufferedSerial*, void (BufferedSerial::*)(), mbed::SerialBase::IrqType)>
 8001890:	b006      	add	sp, #24
 8001892:	bd70      	pop	{r4, r5, r6, pc}
 8001894:	0800177f 	.word	0x0800177f

08001898 <Buffer<char>::put(char)>:
 8001898:	6843      	ldr	r3, [r0, #4]
 800189a:	6802      	ldr	r2, [r0, #0]
 800189c:	b510      	push	{r4, lr}
 800189e:	1c5c      	adds	r4, r3, #1
 80018a0:	6044      	str	r4, [r0, #4]
 80018a2:	54d1      	strb	r1, [r2, r3]
 80018a4:	68c3      	ldr	r3, [r0, #12]
 80018a6:	6841      	ldr	r1, [r0, #4]
 80018a8:	3b01      	subs	r3, #1
 80018aa:	fbb1 f2f3 	udiv	r2, r1, r3
 80018ae:	fb03 1312 	mls	r3, r3, r2, r1
 80018b2:	6043      	str	r3, [r0, #4]
 80018b4:	bd10      	pop	{r4, pc}

080018b6 <BufferedSerial::rxIrq()>:
 80018b6:	b538      	push	{r3, r4, r5, lr}
 80018b8:	1d05      	adds	r5, r0, #4
 80018ba:	4604      	mov	r4, r0
 80018bc:	4628      	mov	r0, r5
 80018be:	f002 fe79 	bl	80045b4 <serial_readable>
 80018c2:	b138      	cbz	r0, 80018d4 <BufferedSerial::rxIrq()+0x1e>
 80018c4:	4628      	mov	r0, r5
 80018c6:	f002 fe81 	bl	80045cc <serial_getc>
 80018ca:	b2c1      	uxtb	r1, r0
 80018cc:	f104 004c 	add.w	r0, r4, #76	; 0x4c
 80018d0:	f7ff ffe2 	bl	8001898 <Buffer<char>::put(char)>
 80018d4:	bd38      	pop	{r3, r4, r5, pc}

080018d6 <BufferedSerial::putc(int)>:
 80018d6:	b538      	push	{r3, r4, r5, lr}
 80018d8:	4605      	mov	r5, r0
 80018da:	460c      	mov	r4, r1
 80018dc:	305c      	adds	r0, #92	; 0x5c
 80018de:	b2c9      	uxtb	r1, r1
 80018e0:	f7ff ffda 	bl	8001898 <Buffer<char>::put(char)>
 80018e4:	4628      	mov	r0, r5
 80018e6:	f7ff ffb3 	bl	8001850 <BufferedSerial::prime()>
 80018ea:	4620      	mov	r0, r4
 80018ec:	bd38      	pop	{r3, r4, r5, pc}

080018ee <BufferedSerial::puts(char const*)>:
 80018ee:	e92d 41f0 	stmdb	sp!, {r4, r5, r6, r7, r8, lr}
 80018f2:	4607      	mov	r7, r0
 80018f4:	460c      	mov	r4, r1
 80018f6:	b1b1      	cbz	r1, 8001926 <BufferedSerial::puts(char const*)+0x38>
 80018f8:	460d      	mov	r5, r1
 80018fa:	f100 085c 	add.w	r8, r0, #92	; 0x5c
 80018fe:	462e      	mov	r6, r5
 8001900:	f816 1b01 	ldrb.w	r1, [r6], #1
 8001904:	b121      	cbz	r1, 8001910 <BufferedSerial::puts(char const*)+0x22>
 8001906:	4640      	mov	r0, r8
 8001908:	f7ff ffc6 	bl	8001898 <Buffer<char>::put(char)>
 800190c:	4635      	mov	r5, r6
 800190e:	e7f6      	b.n	80018fe <BufferedSerial::puts(char const*)+0x10>
 8001910:	210a      	movs	r1, #10
 8001912:	4640      	mov	r0, r8
 8001914:	f7ff ffc0 	bl	8001898 <Buffer<char>::put(char)>
 8001918:	1b2c      	subs	r4, r5, r4
 800191a:	4638      	mov	r0, r7
 800191c:	f7ff ff98 	bl	8001850 <BufferedSerial::prime()>
 8001920:	1c60      	adds	r0, r4, #1
 8001922:	e8bd 81f0 	ldmia.w	sp!, {r4, r5, r6, r7, r8, pc}
 8001926:	4608      	mov	r0, r1
 8001928:	e8bd 81f0 	ldmia.w	sp!, {r4, r5, r6, r7, r8, pc}

0800192c <BufferedSerial::write(void const*, unsigned int)>:
 800192c:	e92d 41f0 	stmdb	sp!, {r4, r5, r6, r7, r8, lr}
 8001930:	4607      	mov	r7, r0
 8001932:	460d      	mov	r5, r1
 8001934:	b191      	cbz	r1, 800195c <BufferedSerial::write(void const*, unsigned int)+0x30>
 8001936:	b1a2      	cbz	r2, 8001962 <BufferedSerial::write(void const*, unsigned int)+0x36>
 8001938:	188c      	adds	r4, r1, r2
 800193a:	460e      	mov	r6, r1
 800193c:	f100 085c 	add.w	r8, r0, #92	; 0x5c
 8001940:	42b4      	cmp	r4, r6
 8001942:	d005      	beq.n	8001950 <BufferedSerial::write(void const*, unsigned int)+0x24>
 8001944:	f816 1b01 	ldrb.w	r1, [r6], #1
 8001948:	4640      	mov	r0, r8
 800194a:	f7ff ffa5 	bl	8001898 <Buffer<char>::put(char)>
 800194e:	e7f7      	b.n	8001940 <BufferedSerial::write(void const*, unsigned int)+0x14>
 8001950:	4638      	mov	r0, r7
 8001952:	f7ff ff7d 	bl	8001850 <BufferedSerial::prime()>
 8001956:	1b60      	subs	r0, r4, r5
 8001958:	e8bd 81f0 	ldmia.w	sp!, {r4, r5, r6, r7, r8, pc}
 800195c:	4608      	mov	r0, r1
 800195e:	e8bd 81f0 	ldmia.w	sp!, {r4, r5, r6, r7, r8, pc}
 8001962:	4610      	mov	r0, r2
 8001964:	e8bd 81f0 	ldmia.w	sp!, {r4, r5, r6, r7, r8, pc}

08001968 <BufferedSerial::printf(char const*, ...)>:
 8001968:	b40e      	push	{r1, r2, r3}
 800196a:	e92d 41f0 	stmdb	sp!, {r4, r5, r6, r7, r8, lr}
 800196e:	b085      	sub	sp, #20
 8001970:	6ec2      	ldr	r2, [r0, #108]	; 0x6c
 8001972:	af02      	add	r7, sp, #8
 8001974:	1dd3      	adds	r3, r2, #7
 8001976:	f023 0307 	bic.w	r3, r3, #7
 800197a:	f107 0424 	add.w	r4, r7, #36	; 0x24
 800197e:	ebad 0d03 	sub.w	sp, sp, r3
 8001982:	f854 8b04 	ldr.w	r8, [r4], #4
 8001986:	ae02      	add	r6, sp, #8
 8001988:	4605      	mov	r5, r0
 800198a:	2100      	movs	r1, #0
 800198c:	4630      	mov	r0, r6
 800198e:	f005 feec 	bl	800776a <memset>
 8001992:	4622      	mov	r2, r4
 8001994:	4641      	mov	r1, r8
 8001996:	4630      	mov	r0, r6
 8001998:	607c      	str	r4, [r7, #4]
 800199a:	f006 f9d3 	bl	8007d44 <vsiprintf>
 800199e:	6eeb      	ldr	r3, [r5, #108]	; 0x6c
 80019a0:	4283      	cmp	r3, r0
 80019a2:	4602      	mov	r2, r0
 80019a4:	d20c      	bcs.n	80019c0 <BufferedSerial::printf(char const*, ...)+0x58>
 80019a6:	9000      	str	r0, [sp, #0]
 80019a8:	225d      	movs	r2, #93	; 0x5d
 80019aa:	4808      	ldr	r0, [pc, #32]	; (80019cc <BufferedSerial::printf(char const*, ...)+0x64>)
 80019ac:	4908      	ldr	r1, [pc, #32]	; (80019d0 <BufferedSerial::printf(char const*, ...)+0x68>)
 80019ae:	f000 f97b 	bl	8001ca8 <error>
 80019b2:	2000      	movs	r0, #0
 80019b4:	370c      	adds	r7, #12
 80019b6:	46bd      	mov	sp, r7
 80019b8:	e8bd 41f0 	ldmia.w	sp!, {r4, r5, r6, r7, r8, lr}
 80019bc:	b003      	add	sp, #12
 80019be:	4770      	bx	lr
 80019c0:	4631      	mov	r1, r6
 80019c2:	4628      	mov	r0, r5
 80019c4:	f7ff ffb2 	bl	800192c <BufferedSerial::write(void const*, unsigned int)>
 80019c8:	e7f4      	b.n	80019b4 <BufferedSerial::printf(char const*, ...)+0x4c>
 80019ca:	bf00      	nop
 80019cc:	08008358 	.word	0x08008358
 80019d0:	08008308 	.word	0x08008308

080019d4 <Buffer<char>::~Buffer()>:
 80019d4:	b510      	push	{r4, lr}
 80019d6:	4604      	mov	r4, r0
 80019d8:	6800      	ldr	r0, [r0, #0]
 80019da:	b108      	cbz	r0, 80019e0 <Buffer<char>::~Buffer()+0xc>
 80019dc:	f004 fc30 	bl	8006240 <operator delete[](void*)>
 80019e0:	4620      	mov	r0, r4
 80019e2:	bd10      	pop	{r4, pc}

080019e4 <Buffer<char>::clear()>:
 80019e4:	2100      	movs	r1, #0
 80019e6:	6041      	str	r1, [r0, #4]
 80019e8:	68c2      	ldr	r2, [r0, #12]
 80019ea:	6081      	str	r1, [r0, #8]
 80019ec:	6800      	ldr	r0, [r0, #0]
 80019ee:	f005 bebc 	b.w	800776a <memset>

080019f2 <Buffer<char>::Buffer(unsigned long)>:
 80019f2:	b538      	push	{r3, r4, r5, lr}
 80019f4:	4604      	mov	r4, r0
 80019f6:	4608      	mov	r0, r1
 80019f8:	460d      	mov	r5, r1
 80019fa:	f004 fc15 	bl	8006228 <operator new[](unsigned int)>
 80019fe:	60e5      	str	r5, [r4, #12]
 8001a00:	6020      	str	r0, [r4, #0]
 8001a02:	4620      	mov	r0, r4
 8001a04:	f7ff ffee 	bl	80019e4 <Buffer<char>::clear()>
 8001a08:	4620      	mov	r0, r4
 8001a0a:	bd38      	pop	{r3, r4, r5, pc}

08001a0c <_gpio_init_in>:
 8001a0c:	b570      	push	{r4, r5, r6, lr}
 8001a0e:	460e      	mov	r6, r1
 8001a10:	4604      	mov	r4, r0
 8001a12:	4615      	mov	r5, r2
 8001a14:	f002 f8b0 	bl	8003b78 <gpio_init>
 8001a18:	3601      	adds	r6, #1
 8001a1a:	d009      	beq.n	8001a30 <_gpio_init_in+0x24>
 8001a1c:	4620      	mov	r0, r4
 8001a1e:	2100      	movs	r1, #0
 8001a20:	f002 f8d0 	bl	8003bc4 <gpio_dir>
 8001a24:	4629      	mov	r1, r5
 8001a26:	4620      	mov	r0, r4
 8001a28:	e8bd 4070 	ldmia.w	sp!, {r4, r5, r6, lr}
 8001a2c:	f002 b8c6 	b.w	8003bbc <gpio_mode>
 8001a30:	bd70      	pop	{r4, r5, r6, pc}

08001a32 <_gpio_init_out.part.1>:
 8001a32:	b538      	push	{r3, r4, r5, lr}
 8001a34:	4604      	mov	r4, r0
 8001a36:	460d      	mov	r5, r1
 8001a38:	6803      	ldr	r3, [r0, #0]
 8001a3a:	b15a      	cbz	r2, 8001a54 <_gpio_init_out.part.1+0x22>
 8001a3c:	6882      	ldr	r2, [r0, #8]
 8001a3e:	6013      	str	r3, [r2, #0]
 8001a40:	4620      	mov	r0, r4
 8001a42:	2101      	movs	r1, #1
 8001a44:	f002 f8be 	bl	8003bc4 <gpio_dir>
 8001a48:	4629      	mov	r1, r5
 8001a4a:	4620      	mov	r0, r4
 8001a4c:	e8bd 4038 	ldmia.w	sp!, {r3, r4, r5, lr}
 8001a50:	f002 b8b4 	b.w	8003bbc <gpio_mode>
 8001a54:	68c2      	ldr	r2, [r0, #12]
 8001a56:	e7f2      	b.n	8001a3e <_gpio_init_out.part.1+0xc>

08001a58 <gpio_init_in>:
 8001a58:	2200      	movs	r2, #0
 8001a5a:	f7ff bfd7 	b.w	8001a0c <_gpio_init_in>

08001a5e <gpio_init_out_ex>:
 8001a5e:	b570      	push	{r4, r5, r6, lr}
 8001a60:	460e      	mov	r6, r1
 8001a62:	4604      	mov	r4, r0
 8001a64:	4615      	mov	r5, r2
 8001a66:	f002 f887 	bl	8003b78 <gpio_init>
 8001a6a:	3601      	adds	r6, #1
 8001a6c:	d006      	beq.n	8001a7c <gpio_init_out_ex+0x1e>
 8001a6e:	462a      	mov	r2, r5
 8001a70:	4620      	mov	r0, r4
 8001a72:	2100      	movs	r1, #0
 8001a74:	e8bd 4070 	ldmia.w	sp!, {r4, r5, r6, lr}
 8001a78:	f7ff bfdb 	b.w	8001a32 <_gpio_init_out.part.1>
 8001a7c:	bd70      	pop	{r4, r5, r6, pc}

08001a7e <gpio_init_out>:
 8001a7e:	2200      	movs	r2, #0
 8001a80:	f7ff bfed 	b.w	8001a5e <gpio_init_out_ex>

08001a84 <get_us_ticker_data>:
 8001a84:	4800      	ldr	r0, [pc, #0]	; (8001a88 <get_us_ticker_data+0x4>)
 8001a86:	4770      	bx	lr
 8001a88:	080083c8 	.word	0x080083c8

08001a8c <us_ticker_irq_handler>:
 8001a8c:	4801      	ldr	r0, [pc, #4]	; (8001a94 <us_ticker_irq_handler+0x8>)
 8001a8e:	f000 b80c 	b.w	8001aaa <ticker_irq_handler>
 8001a92:	bf00      	nop
 8001a94:	080083c8 	.word	0x080083c8

08001a98 <ticker_set_handler>:
 8001a98:	b538      	push	{r3, r4, r5, lr}
 8001a9a:	6803      	ldr	r3, [r0, #0]
 8001a9c:	4604      	mov	r4, r0
 8001a9e:	681b      	ldr	r3, [r3, #0]
 8001aa0:	460d      	mov	r5, r1
 8001aa2:	4798      	blx	r3
 8001aa4:	6863      	ldr	r3, [r4, #4]
 8001aa6:	601d      	str	r5, [r3, #0]
 8001aa8:	bd38      	pop	{r3, r4, r5, pc}

08001aaa <ticker_irq_handler>:
 8001aaa:	6803      	ldr	r3, [r0, #0]
 8001aac:	b570      	push	{r4, r5, r6, lr}
 8001aae:	68db      	ldr	r3, [r3, #12]
 8001ab0:	4604      	mov	r4, r0
 8001ab2:	4798      	blx	r3
 8001ab4:	6863      	ldr	r3, [r4, #4]
 8001ab6:	685a      	ldr	r2, [r3, #4]
 8001ab8:	6823      	ldr	r3, [r4, #0]
 8001aba:	b91a      	cbnz	r2, 8001ac4 <ticker_irq_handler+0x1a>
 8001abc:	689b      	ldr	r3, [r3, #8]
 8001abe:	e8bd 4070 	ldmia.w	sp!, {r4, r5, r6, lr}
 8001ac2:	4718      	bx	r3
 8001ac4:	685b      	ldr	r3, [r3, #4]
 8001ac6:	6815      	ldr	r5, [r2, #0]
 8001ac8:	4798      	blx	r3
 8001aca:	6863      	ldr	r3, [r4, #4]
 8001acc:	1a28      	subs	r0, r5, r0
 8001ace:	2800      	cmp	r0, #0
 8001ad0:	685a      	ldr	r2, [r3, #4]
 8001ad2:	dc07      	bgt.n	8001ae4 <ticker_irq_handler+0x3a>
 8001ad4:	6891      	ldr	r1, [r2, #8]
 8001ad6:	6059      	str	r1, [r3, #4]
 8001ad8:	681b      	ldr	r3, [r3, #0]
 8001ada:	2b00      	cmp	r3, #0
 8001adc:	d0ea      	beq.n	8001ab4 <ticker_irq_handler+0xa>
 8001ade:	6850      	ldr	r0, [r2, #4]
 8001ae0:	4798      	blx	r3
 8001ae2:	e7e7      	b.n	8001ab4 <ticker_irq_handler+0xa>
 8001ae4:	6823      	ldr	r3, [r4, #0]
 8001ae6:	6810      	ldr	r0, [r2, #0]
 8001ae8:	691b      	ldr	r3, [r3, #16]
 8001aea:	e8bd 4070 	ldmia.w	sp!, {r4, r5, r6, lr}
 8001aee:	4718      	bx	r3

08001af0 <ticker_insert_event>:
 8001af0:	b5f8      	push	{r3, r4, r5, r6, r7, lr}
 8001af2:	4606      	mov	r6, r0
 8001af4:	460c      	mov	r4, r1
 8001af6:	461f      	mov	r7, r3
 8001af8:	4615      	mov	r5, r2
 8001afa:	f000 f8ab 	bl	8001c54 <core_util_critical_section_enter>
 8001afe:	6870      	ldr	r0, [r6, #4]
 8001b00:	e884 00a0 	stmia.w	r4, {r5, r7}
 8001b04:	6843      	ldr	r3, [r0, #4]
 8001b06:	2100      	movs	r1, #0
 8001b08:	b953      	cbnz	r3, 8001b20 <ticker_insert_event+0x30>
 8001b0a:	60a3      	str	r3, [r4, #8]
 8001b0c:	b979      	cbnz	r1, 8001b2e <ticker_insert_event+0x3e>
 8001b0e:	6833      	ldr	r3, [r6, #0]
 8001b10:	6044      	str	r4, [r0, #4]
 8001b12:	691b      	ldr	r3, [r3, #16]
 8001b14:	4628      	mov	r0, r5
 8001b16:	4798      	blx	r3
 8001b18:	e8bd 40f8 	ldmia.w	sp!, {r3, r4, r5, r6, r7, lr}
 8001b1c:	f000 b8b0 	b.w	8001c80 <core_util_critical_section_exit>
 8001b20:	681a      	ldr	r2, [r3, #0]
 8001b22:	1aaa      	subs	r2, r5, r2
 8001b24:	2a00      	cmp	r2, #0
 8001b26:	dbf0      	blt.n	8001b0a <ticker_insert_event+0x1a>
 8001b28:	4619      	mov	r1, r3
 8001b2a:	689b      	ldr	r3, [r3, #8]
 8001b2c:	e7ec      	b.n	8001b08 <ticker_insert_event+0x18>
 8001b2e:	608c      	str	r4, [r1, #8]
 8001b30:	e7f2      	b.n	8001b18 <ticker_insert_event+0x28>

08001b32 <ticker_remove_event>:
 8001b32:	b538      	push	{r3, r4, r5, lr}
 8001b34:	4605      	mov	r5, r0
 8001b36:	460c      	mov	r4, r1
 8001b38:	f000 f88c 	bl	8001c54 <core_util_critical_section_enter>
 8001b3c:	686a      	ldr	r2, [r5, #4]
 8001b3e:	6853      	ldr	r3, [r2, #4]
 8001b40:	42a3      	cmp	r3, r4
 8001b42:	d10e      	bne.n	8001b62 <ticker_remove_event+0x30>
 8001b44:	689b      	ldr	r3, [r3, #8]
 8001b46:	6053      	str	r3, [r2, #4]
 8001b48:	682a      	ldr	r2, [r5, #0]
 8001b4a:	b92b      	cbnz	r3, 8001b58 <ticker_remove_event+0x26>
 8001b4c:	6893      	ldr	r3, [r2, #8]
 8001b4e:	4798      	blx	r3
 8001b50:	e8bd 4038 	ldmia.w	sp!, {r3, r4, r5, lr}
 8001b54:	f000 b894 	b.w	8001c80 <core_util_critical_section_exit>
 8001b58:	6912      	ldr	r2, [r2, #16]
 8001b5a:	6818      	ldr	r0, [r3, #0]
 8001b5c:	4790      	blx	r2
 8001b5e:	e7f7      	b.n	8001b50 <ticker_remove_event+0x1e>
 8001b60:	4613      	mov	r3, r2
 8001b62:	2b00      	cmp	r3, #0
 8001b64:	d0f4      	beq.n	8001b50 <ticker_remove_event+0x1e>
 8001b66:	689a      	ldr	r2, [r3, #8]
 8001b68:	4294      	cmp	r4, r2
 8001b6a:	d1f9      	bne.n	8001b60 <ticker_remove_event+0x2e>
 8001b6c:	68a2      	ldr	r2, [r4, #8]
 8001b6e:	609a      	str	r2, [r3, #8]
 8001b70:	e7ee      	b.n	8001b50 <ticker_remove_event+0x1e>

08001b72 <ticker_read>:
 8001b72:	6803      	ldr	r3, [r0, #0]
 8001b74:	685b      	ldr	r3, [r3, #4]
 8001b76:	4718      	bx	r3

08001b78 <pinmap_pinout>:
 8001b78:	b510      	push	{r4, lr}
 8001b7a:	4604      	mov	r4, r0
 8001b7c:	3001      	adds	r0, #1
 8001b7e:	d10d      	bne.n	8001b9c <pinmap_pinout+0x24>
 8001b80:	bd10      	pop	{r4, pc}
 8001b82:	429c      	cmp	r4, r3
 8001b84:	d109      	bne.n	8001b9a <pinmap_pinout+0x22>
 8001b86:	4620      	mov	r0, r4
 8001b88:	6889      	ldr	r1, [r1, #8]
 8001b8a:	f002 fac3 	bl	8004114 <pin_function>
 8001b8e:	4620      	mov	r0, r4
 8001b90:	2100      	movs	r1, #0
 8001b92:	e8bd 4010 	ldmia.w	sp!, {r4, lr}
 8001b96:	f002 bb41 	b.w	800421c <pin_mode>
 8001b9a:	310c      	adds	r1, #12
 8001b9c:	f9b1 3000 	ldrsh.w	r3, [r1]
 8001ba0:	1c5a      	adds	r2, r3, #1
 8001ba2:	d1ee      	bne.n	8001b82 <pinmap_pinout+0xa>
 8001ba4:	4802      	ldr	r0, [pc, #8]	; (8001bb0 <pinmap_pinout+0x38>)
 8001ba6:	e8bd 4010 	ldmia.w	sp!, {r4, lr}
 8001baa:	f000 b87d 	b.w	8001ca8 <error>
 8001bae:	bf00      	nop
 8001bb0:	08008433 	.word	0x08008433

08001bb4 <pinmap_merge>:
 8001bb4:	4288      	cmp	r0, r1
 8001bb6:	b508      	push	{r3, lr}
 8001bb8:	d008      	beq.n	8001bcc <pinmap_merge+0x18>
 8001bba:	1c43      	adds	r3, r0, #1
 8001bbc:	d006      	beq.n	8001bcc <pinmap_merge+0x18>
 8001bbe:	3101      	adds	r1, #1
 8001bc0:	d006      	beq.n	8001bd0 <pinmap_merge+0x1c>
 8001bc2:	4804      	ldr	r0, [pc, #16]	; (8001bd4 <pinmap_merge+0x20>)
 8001bc4:	f000 f870 	bl	8001ca8 <error>
 8001bc8:	f04f 31ff 	mov.w	r1, #4294967295	; 0xffffffff
 8001bcc:	4608      	mov	r0, r1
 8001bce:	bd08      	pop	{r3, pc}
 8001bd0:	4601      	mov	r1, r0
 8001bd2:	e7fb      	b.n	8001bcc <pinmap_merge+0x18>
 8001bd4:	08008402 	.word	0x08008402

08001bd8 <pinmap_find_peripheral>:
 8001bd8:	f9b1 3000 	ldrsh.w	r3, [r1]
 8001bdc:	1c5a      	adds	r2, r3, #1
 8001bde:	d101      	bne.n	8001be4 <pinmap_find_peripheral+0xc>
 8001be0:	4618      	mov	r0, r3
 8001be2:	4770      	bx	lr
 8001be4:	4283      	cmp	r3, r0
 8001be6:	d101      	bne.n	8001bec <pinmap_find_peripheral+0x14>
 8001be8:	6848      	ldr	r0, [r1, #4]
 8001bea:	4770      	bx	lr
 8001bec:	310c      	adds	r1, #12
 8001bee:	e7f3      	b.n	8001bd8 <pinmap_find_peripheral>

08001bf0 <pinmap_peripheral>:
 8001bf0:	1c42      	adds	r2, r0, #1
 8001bf2:	b510      	push	{r4, lr}
 8001bf4:	4604      	mov	r4, r0
 8001bf6:	d007      	beq.n	8001c08 <pinmap_peripheral+0x18>
 8001bf8:	f7ff ffee 	bl	8001bd8 <pinmap_find_peripheral>
 8001bfc:	1c43      	adds	r3, r0, #1
 8001bfe:	4604      	mov	r4, r0
 8001c00:	d102      	bne.n	8001c08 <pinmap_peripheral+0x18>
 8001c02:	4802      	ldr	r0, [pc, #8]	; (8001c0c <pinmap_peripheral+0x1c>)
 8001c04:	f000 f850 	bl	8001ca8 <error>
 8001c08:	4620      	mov	r0, r4
 8001c0a:	bd10      	pop	{r4, pc}
 8001c0c:	08008413 	.word	0x08008413

08001c10 <pinmap_find_function>:
 8001c10:	f9b1 3000 	ldrsh.w	r3, [r1]
 8001c14:	1c5a      	adds	r2, r3, #1
 8001c16:	d101      	bne.n	8001c1c <pinmap_find_function+0xc>
 8001c18:	4618      	mov	r0, r3
 8001c1a:	4770      	bx	lr
 8001c1c:	4283      	cmp	r3, r0
 8001c1e:	d101      	bne.n	8001c24 <pinmap_find_function+0x14>
 8001c20:	6888      	ldr	r0, [r1, #8]
 8001c22:	4770      	bx	lr
 8001c24:	310c      	adds	r1, #12
 8001c26:	e7f3      	b.n	8001c10 <pinmap_find_function>

08001c28 <pinmap_function>:
 8001c28:	1c42      	adds	r2, r0, #1
 8001c2a:	b510      	push	{r4, lr}
 8001c2c:	4604      	mov	r4, r0
 8001c2e:	d007      	beq.n	8001c40 <pinmap_function+0x18>
 8001c30:	f7ff ffee 	bl	8001c10 <pinmap_find_function>
 8001c34:	1c43      	adds	r3, r0, #1
 8001c36:	4604      	mov	r4, r0
 8001c38:	d102      	bne.n	8001c40 <pinmap_function+0x18>
 8001c3a:	4802      	ldr	r0, [pc, #8]	; (8001c44 <pinmap_function+0x1c>)
 8001c3c:	f000 f834 	bl	8001ca8 <error>
 8001c40:	4620      	mov	r0, r4
 8001c42:	bd10      	pop	{r4, pc}
 8001c44:	080083e4 	.word	0x080083e4

08001c48 <core_util_are_interrupts_enabled>:
 8001c48:	f3ef 8010 	mrs	r0, PRIMASK
 8001c4c:	43c0      	mvns	r0, r0
 8001c4e:	f000 0001 	and.w	r0, r0, #1
 8001c52:	4770      	bx	lr

08001c54 <core_util_critical_section_enter>:
 8001c54:	b508      	push	{r3, lr}
 8001c56:	f7ff fff7 	bl	8001c48 <core_util_are_interrupts_enabled>
 8001c5a:	b672      	cpsid	i
 8001c5c:	4b06      	ldr	r3, [pc, #24]	; (8001c78 <core_util_critical_section_enter+0x24>)
 8001c5e:	681a      	ldr	r2, [r3, #0]
 8001c60:	b922      	cbnz	r2, 8001c6c <core_util_critical_section_enter+0x18>
 8001c62:	f080 0001 	eor.w	r0, r0, #1
 8001c66:	4a05      	ldr	r2, [pc, #20]	; (8001c7c <core_util_critical_section_enter+0x28>)
 8001c68:	b2c0      	uxtb	r0, r0
 8001c6a:	7010      	strb	r0, [r2, #0]
 8001c6c:	681a      	ldr	r2, [r3, #0]
 8001c6e:	681a      	ldr	r2, [r3, #0]
 8001c70:	3201      	adds	r2, #1
 8001c72:	601a      	str	r2, [r3, #0]
 8001c74:	bd08      	pop	{r3, pc}
 8001c76:	bf00      	nop
 8001c78:	20000ea4 	.word	0x20000ea4
 8001c7c:	20000ea0 	.word	0x20000ea0

08001c80 <core_util_critical_section_exit>:
 8001c80:	b508      	push	{r3, lr}
 8001c82:	4b07      	ldr	r3, [pc, #28]	; (8001ca0 <core_util_critical_section_exit+0x20>)
 8001c84:	681a      	ldr	r2, [r3, #0]
 8001c86:	b152      	cbz	r2, 8001c9e <core_util_critical_section_exit+0x1e>
 8001c88:	f7ff ffde 	bl	8001c48 <core_util_are_interrupts_enabled>
 8001c8c:	681a      	ldr	r2, [r3, #0]
 8001c8e:	3a01      	subs	r2, #1
 8001c90:	601a      	str	r2, [r3, #0]
 8001c92:	681b      	ldr	r3, [r3, #0]
 8001c94:	b91b      	cbnz	r3, 8001c9e <core_util_critical_section_exit+0x1e>
 8001c96:	4b03      	ldr	r3, [pc, #12]	; (8001ca4 <core_util_critical_section_exit+0x24>)
 8001c98:	781b      	ldrb	r3, [r3, #0]
 8001c9a:	b903      	cbnz	r3, 8001c9e <core_util_critical_section_exit+0x1e>
 8001c9c:	b662      	cpsie	i
 8001c9e:	bd08      	pop	{r3, pc}
 8001ca0:	20000ea4 	.word	0x20000ea4
 8001ca4:	20000ea0 	.word	0x20000ea0

08001ca8 <error>:
 8001ca8:	b40f      	push	{r0, r1, r2, r3}
 8001caa:	2001      	movs	r0, #1
 8001cac:	b508      	push	{r3, lr}
 8001cae:	f004 faaf 	bl	8006210 <__wrap_exit>

08001cb2 <mbed_die>:
 8001cb2:	b508      	push	{r3, lr}
 8001cb4:	f7ff ffce 	bl	8001c54 <core_util_critical_section_enter>
 8001cb8:	2096      	movs	r0, #150	; 0x96
 8001cba:	f004 f9a5 	bl	8006008 <wait_ms>
 8001cbe:	2096      	movs	r0, #150	; 0x96
 8001cc0:	f004 f9a2 	bl	8006008 <wait_ms>
 8001cc4:	e7f8      	b.n	8001cb8 <mbed_die+0x6>

08001cc6 <default_idle_hook>:
 8001cc6:	f001 bfa6 	b.w	8003c16 <hal_sleep>
	...

08001ccc <rtos_idle_loop>:
 8001ccc:	b508      	push	{r3, lr}
 8001cce:	4c02      	ldr	r4, [pc, #8]	; (8001cd8 <rtos_idle_loop+0xc>)
 8001cd0:	6823      	ldr	r3, [r4, #0]
 8001cd2:	4798      	blx	r3
 8001cd4:	e7fc      	b.n	8001cd0 <rtos_idle_loop+0x4>
 8001cd6:	bf00      	nop
 8001cd8:	20000008 	.word	0x20000008

08001cdc <pre_main>:
 8001cdc:	b508      	push	{r3, lr}
 8001cde:	480b      	ldr	r0, [pc, #44]	; (8001d0c <pre_main+0x30>)
 8001ce0:	f000 ff92 	bl	8002c08 <osMutexCreate>
 8001ce4:	4b0a      	ldr	r3, [pc, #40]	; (8001d10 <pre_main+0x34>)
 8001ce6:	6018      	str	r0, [r3, #0]
 8001ce8:	480a      	ldr	r0, [pc, #40]	; (8001d14 <pre_main+0x38>)
 8001cea:	f000 ff8d 	bl	8002c08 <osMutexCreate>
 8001cee:	4b0a      	ldr	r3, [pc, #40]	; (8001d18 <pre_main+0x3c>)
 8001cf0:	6018      	str	r0, [r3, #0]
 8001cf2:	480a      	ldr	r0, [pc, #40]	; (8001d1c <pre_main+0x40>)
 8001cf4:	f000 ff88 	bl	8002c08 <osMutexCreate>
 8001cf8:	4b09      	ldr	r3, [pc, #36]	; (8001d20 <pre_main+0x44>)
 8001cfa:	6018      	str	r0, [r3, #0]
 8001cfc:	f005 fc88 	bl	8007610 <__libc_init_array>
 8001d00:	2100      	movs	r1, #0
 8001d02:	4608      	mov	r0, r1
 8001d04:	e8bd 4008 	ldmia.w	sp!, {r3, lr}
 8001d08:	f004 ba45 	b.w	8006196 <__wrap_main>
 8001d0c:	08008490 	.word	0x08008490
 8001d10:	20002688 	.word	0x20002688
 8001d14:	0800848c 	.word	0x0800848c
 8001d18:	20000eb0 	.word	0x20000eb0
 8001d1c:	08008488 	.word	0x08008488
 8001d20:	20000ea8 	.word	0x20000ea8

08001d24 <os_idle_demon>:
 8001d24:	f7ff bfd2 	b.w	8001ccc <rtos_idle_loop>

08001d28 <os_error>:
 8001d28:	b510      	push	{r4, lr}
 8001d2a:	4604      	mov	r4, r0
 8001d2c:	f000 fe3e 	bl	80029ac <svcThreadGetId>
 8001d30:	4621      	mov	r1, r4
 8001d32:	4602      	mov	r2, r0
 8001d34:	e8bd 4010 	ldmia.w	sp!, {r4, lr}
 8001d38:	4801      	ldr	r0, [pc, #4]	; (8001d40 <os_error+0x18>)
 8001d3a:	f7ff bfb5 	b.w	8001ca8 <error>
 8001d3e:	bf00      	nop
 8001d40:	08008450 	.word	0x08008450

08001d44 <sysThreadTerminate>:
 8001d44:	f004 ba9a 	b.w	800627c <thread_terminate_hook>

08001d48 <set_stack_heap>:
 8001d48:	4a0b      	ldr	r2, [pc, #44]	; (8001d78 <set_stack_heap+0x30>)
 8001d4a:	4b0c      	ldr	r3, [pc, #48]	; (8001d7c <set_stack_heap+0x34>)
 8001d4c:	480c      	ldr	r0, [pc, #48]	; (8001d80 <set_stack_heap+0x38>)
 8001d4e:	b430      	push	{r4, r5}
 8001d50:	601a      	str	r2, [r3, #0]
 8001d52:	f1c2 5300 	rsb	r3, r2, #536870912	; 0x20000000
 8001d56:	f503 4340 	add.w	r3, r3, #49152	; 0xc000
 8001d5a:	f5b3 6f80 	cmp.w	r3, #1024	; 0x400
 8001d5e:	4619      	mov	r1, r3
 8001d60:	bf28      	it	cs
 8001d62:	f44f 6180 	movcs.w	r1, #1024	; 0x400
 8001d66:	4d07      	ldr	r5, [pc, #28]	; (8001d84 <set_stack_heap+0x3c>)
 8001d68:	4c07      	ldr	r4, [pc, #28]	; (8001d88 <set_stack_heap+0x40>)
 8001d6a:	6001      	str	r1, [r0, #0]
 8001d6c:	1a5b      	subs	r3, r3, r1
 8001d6e:	441a      	add	r2, r3
 8001d70:	602a      	str	r2, [r5, #0]
 8001d72:	6023      	str	r3, [r4, #0]
 8001d74:	bc30      	pop	{r4, r5}
 8001d76:	4770      	bx	lr
 8001d78:	200030c8 	.word	0x200030c8
 8001d7c:	200025ec 	.word	0x200025ec
 8001d80:	20000eb4 	.word	0x20000eb4
 8001d84:	20000eb8 	.word	0x20000eb8
 8001d88:	200025e8 	.word	0x200025e8

08001d8c <software_init_hook_rtos>:
 8001d8c:	f001 f8d0 	bl	8002f30 <osKernelInitialize>
 8001d90:	f7ff ffda 	bl	8001d48 <set_stack_heap>
 8001d94:	4803      	ldr	r0, [pc, #12]	; (8001da4 <software_init_hook_rtos+0x18>)
 8001d96:	2100      	movs	r1, #0
 8001d98:	f000 ffbe 	bl	8002d18 <osThreadCreate>
 8001d9c:	f000 fd88 	bl	80028b0 <osKernelStart>
 8001da0:	e7fe      	b.n	8001da0 <software_init_hook_rtos+0x14>
 8001da2:	0000      	.short	0x0000
 8001da4:	2000000c 	.word	0x2000000c

08001da8 <__rtos_malloc_lock>:
 8001da8:	4b02      	ldr	r3, [pc, #8]	; (8001db4 <__rtos_malloc_lock+0xc>)
 8001daa:	f04f 31ff 	mov.w	r1, #4294967295	; 0xffffffff
 8001dae:	6818      	ldr	r0, [r3, #0]
 8001db0:	f000 bf48 	b.w	8002c44 <osMutexWait>
 8001db4:	20000eb0 	.word	0x20000eb0

08001db8 <__rtos_malloc_unlock>:
 8001db8:	4b01      	ldr	r3, [pc, #4]	; (8001dc0 <__rtos_malloc_unlock+0x8>)
 8001dba:	6818      	ldr	r0, [r3, #0]
 8001dbc:	f000 bf6a 	b.w	8002c94 <osMutexRelease>
 8001dc0:	20000eb0 	.word	0x20000eb0

08001dc4 <rt_put_prio>:
 8001dc4:	b530      	push	{r4, r5, lr}
 8001dc6:	7802      	ldrb	r2, [r0, #0]
 8001dc8:	788c      	ldrb	r4, [r1, #2]
 8001dca:	6843      	ldr	r3, [r0, #4]
 8001dcc:	3a01      	subs	r2, #1
 8001dce:	b2d2      	uxtb	r2, r2
 8001dd0:	b113      	cbz	r3, 8001dd8 <rt_put_prio+0x14>
 8001dd2:	789d      	ldrb	r5, [r3, #2]
 8001dd4:	42a5      	cmp	r5, r4
 8001dd6:	d207      	bcs.n	8001de8 <rt_put_prio+0x24>
 8001dd8:	2a02      	cmp	r2, #2
 8001dda:	604b      	str	r3, [r1, #4]
 8001ddc:	6041      	str	r1, [r0, #4]
 8001dde:	d806      	bhi.n	8001dee <rt_put_prio+0x2a>
 8001de0:	b103      	cbz	r3, 8001de4 <rt_put_prio+0x20>
 8001de2:	6099      	str	r1, [r3, #8]
 8001de4:	6088      	str	r0, [r1, #8]
 8001de6:	bd30      	pop	{r4, r5, pc}
 8001de8:	4618      	mov	r0, r3
 8001dea:	685b      	ldr	r3, [r3, #4]
 8001dec:	e7f0      	b.n	8001dd0 <rt_put_prio+0xc>
 8001dee:	2300      	movs	r3, #0
 8001df0:	608b      	str	r3, [r1, #8]
 8001df2:	bd30      	pop	{r4, r5, pc}

08001df4 <rt_get_first>:
 8001df4:	7802      	ldrb	r2, [r0, #0]
 8001df6:	6843      	ldr	r3, [r0, #4]
 8001df8:	3a01      	subs	r2, #1
 8001dfa:	6859      	ldr	r1, [r3, #4]
 8001dfc:	6041      	str	r1, [r0, #4]
 8001dfe:	2a02      	cmp	r2, #2
 8001e00:	f04f 0200 	mov.w	r2, #0
 8001e04:	d805      	bhi.n	8001e12 <rt_get_first+0x1e>
 8001e06:	b109      	cbz	r1, 8001e0c <rt_get_first+0x18>
 8001e08:	6088      	str	r0, [r1, #8]
 8001e0a:	605a      	str	r2, [r3, #4]
 8001e0c:	609a      	str	r2, [r3, #8]
 8001e0e:	4618      	mov	r0, r3
 8001e10:	4770      	bx	lr
 8001e12:	605a      	str	r2, [r3, #4]
 8001e14:	e7fb      	b.n	8001e0e <rt_get_first+0x1a>
	...

08001e18 <rt_put_rdy_first>:
 8001e18:	4b03      	ldr	r3, [pc, #12]	; (8001e28 <rt_put_rdy_first+0x10>)
 8001e1a:	685a      	ldr	r2, [r3, #4]
 8001e1c:	6042      	str	r2, [r0, #4]
 8001e1e:	2200      	movs	r2, #0
 8001e20:	6082      	str	r2, [r0, #8]
 8001e22:	6058      	str	r0, [r3, #4]
 8001e24:	4770      	bx	lr
 8001e26:	bf00      	nop
 8001e28:	20002fc8 	.word	0x20002fc8

08001e2c <rt_put_dly>:
 8001e2c:	4b10      	ldr	r3, [pc, #64]	; (8001e70 <rt_put_dly+0x44>)
 8001e2e:	68da      	ldr	r2, [r3, #12]
 8001e30:	b510      	push	{r4, lr}
 8001e32:	b18a      	cbz	r2, 8001e58 <rt_put_dly+0x2c>
 8001e34:	8a9a      	ldrh	r2, [r3, #20]
 8001e36:	68dc      	ldr	r4, [r3, #12]
 8001e38:	428a      	cmp	r2, r1
 8001e3a:	d30c      	bcc.n	8001e56 <rt_put_dly+0x2a>
 8001e3c:	60c4      	str	r4, [r0, #12]
 8001e3e:	60d8      	str	r0, [r3, #12]
 8001e40:	68c4      	ldr	r4, [r0, #12]
 8001e42:	6103      	str	r3, [r0, #16]
 8001e44:	b104      	cbz	r4, 8001e48 <rt_put_dly+0x1c>
 8001e46:	6120      	str	r0, [r4, #16]
 8001e48:	1a52      	subs	r2, r2, r1
 8001e4a:	b292      	uxth	r2, r2
 8001e4c:	8282      	strh	r2, [r0, #20]
 8001e4e:	8a99      	ldrh	r1, [r3, #20]
 8001e50:	1a8a      	subs	r2, r1, r2
 8001e52:	829a      	strh	r2, [r3, #20]
 8001e54:	bd10      	pop	{r4, pc}
 8001e56:	b93c      	cbnz	r4, 8001e68 <rt_put_dly+0x3c>
 8001e58:	2400      	movs	r4, #0
 8001e5a:	1a8a      	subs	r2, r1, r2
 8001e5c:	60c4      	str	r4, [r0, #12]
 8001e5e:	60d8      	str	r0, [r3, #12]
 8001e60:	6103      	str	r3, [r0, #16]
 8001e62:	829a      	strh	r2, [r3, #20]
 8001e64:	8284      	strh	r4, [r0, #20]
 8001e66:	bd10      	pop	{r4, pc}
 8001e68:	8aa3      	ldrh	r3, [r4, #20]
 8001e6a:	441a      	add	r2, r3
 8001e6c:	4623      	mov	r3, r4
 8001e6e:	e7e2      	b.n	8001e36 <rt_put_dly+0xa>
 8001e70:	20002fe0 	.word	0x20002fe0

08001e74 <rt_dec_dly>:
 8001e74:	e92d 41f0 	stmdb	sp!, {r4, r5, r6, r7, r8, lr}
 8001e78:	4d17      	ldr	r5, [pc, #92]	; (8001ed8 <rt_dec_dly+0x64>)
 8001e7a:	68eb      	ldr	r3, [r5, #12]
 8001e7c:	b153      	cbz	r3, 8001e94 <rt_dec_dly+0x20>
 8001e7e:	8aab      	ldrh	r3, [r5, #20]
 8001e80:	4f16      	ldr	r7, [pc, #88]	; (8001edc <rt_dec_dly+0x68>)
 8001e82:	f8df 805c 	ldr.w	r8, [pc, #92]	; 8001ee0 <rt_dec_dly+0x6c>
 8001e86:	3b01      	subs	r3, #1
 8001e88:	82ab      	strh	r3, [r5, #20]
 8001e8a:	2600      	movs	r6, #0
 8001e8c:	8aaa      	ldrh	r2, [r5, #20]
 8001e8e:	b90a      	cbnz	r2, 8001e94 <rt_dec_dly+0x20>
 8001e90:	68ec      	ldr	r4, [r5, #12]
 8001e92:	b90c      	cbnz	r4, 8001e98 <rt_dec_dly+0x24>
 8001e94:	e8bd 81f0 	ldmia.w	sp!, {r4, r5, r6, r7, r8, pc}
 8001e98:	68a3      	ldr	r3, [r4, #8]
 8001e9a:	b133      	cbz	r3, 8001eaa <rt_dec_dly+0x36>
 8001e9c:	6861      	ldr	r1, [r4, #4]
 8001e9e:	6059      	str	r1, [r3, #4]
 8001ea0:	6861      	ldr	r1, [r4, #4]
 8001ea2:	b109      	cbz	r1, 8001ea8 <rt_dec_dly+0x34>
 8001ea4:	608b      	str	r3, [r1, #8]
 8001ea6:	6062      	str	r2, [r4, #4]
 8001ea8:	60a6      	str	r6, [r4, #8]
 8001eaa:	4621      	mov	r1, r4
 8001eac:	4638      	mov	r0, r7
 8001eae:	f7ff ff89 	bl	8001dc4 <rt_put_prio>
 8001eb2:	8aa3      	ldrh	r3, [r4, #20]
 8001eb4:	82ab      	strh	r3, [r5, #20]
 8001eb6:	7863      	ldrb	r3, [r4, #1]
 8001eb8:	2b04      	cmp	r3, #4
 8001eba:	bf01      	itttt	eq
 8001ebc:	f8d8 3000 	ldreq.w	r3, [r8]
 8001ec0:	8ae2      	ldrheq	r2, [r4, #22]
 8001ec2:	189b      	addeq	r3, r3, r2
 8001ec4:	82a3      	strheq	r3, [r4, #20]
 8001ec6:	2301      	movs	r3, #1
 8001ec8:	7063      	strb	r3, [r4, #1]
 8001eca:	68e3      	ldr	r3, [r4, #12]
 8001ecc:	60eb      	str	r3, [r5, #12]
 8001ece:	b10b      	cbz	r3, 8001ed4 <rt_dec_dly+0x60>
 8001ed0:	611d      	str	r5, [r3, #16]
 8001ed2:	60e6      	str	r6, [r4, #12]
 8001ed4:	6126      	str	r6, [r4, #16]
 8001ed6:	e7d9      	b.n	8001e8c <rt_dec_dly+0x18>
 8001ed8:	20002fe0 	.word	0x20002fe0
 8001edc:	20002fc8 	.word	0x20002fc8
 8001ee0:	2000305c 	.word	0x2000305c

08001ee4 <rt_rmv_list>:
 8001ee4:	6883      	ldr	r3, [r0, #8]
 8001ee6:	b12b      	cbz	r3, 8001ef4 <rt_rmv_list+0x10>
 8001ee8:	6842      	ldr	r2, [r0, #4]
 8001eea:	605a      	str	r2, [r3, #4]
 8001eec:	6842      	ldr	r2, [r0, #4]
 8001eee:	b15a      	cbz	r2, 8001f08 <rt_rmv_list+0x24>
 8001ef0:	6093      	str	r3, [r2, #8]
 8001ef2:	4770      	bx	lr
 8001ef4:	4b05      	ldr	r3, [pc, #20]	; (8001f0c <rt_rmv_list+0x28>)
 8001ef6:	685a      	ldr	r2, [r3, #4]
 8001ef8:	4290      	cmp	r0, r2
 8001efa:	d102      	bne.n	8001f02 <rt_rmv_list+0x1e>
 8001efc:	6842      	ldr	r2, [r0, #4]
 8001efe:	605a      	str	r2, [r3, #4]
 8001f00:	4770      	bx	lr
 8001f02:	4613      	mov	r3, r2
 8001f04:	2a00      	cmp	r2, #0
 8001f06:	d1f6      	bne.n	8001ef6 <rt_rmv_list+0x12>
 8001f08:	4770      	bx	lr
 8001f0a:	bf00      	nop
 8001f0c:	20002fc8 	.word	0x20002fc8

08001f10 <rt_resort_prio>:
 8001f10:	b510      	push	{r4, lr}
 8001f12:	6884      	ldr	r4, [r0, #8]
 8001f14:	4601      	mov	r1, r0
 8001f16:	b92c      	cbnz	r4, 8001f24 <rt_resort_prio+0x14>
 8001f18:	7843      	ldrb	r3, [r0, #1]
 8001f1a:	2b01      	cmp	r3, #1
 8001f1c:	d10d      	bne.n	8001f3a <rt_resort_prio+0x2a>
 8001f1e:	4c07      	ldr	r4, [pc, #28]	; (8001f3c <rt_resort_prio+0x2c>)
 8001f20:	e003      	b.n	8001f2a <rt_resort_prio+0x1a>
 8001f22:	68a4      	ldr	r4, [r4, #8]
 8001f24:	7823      	ldrb	r3, [r4, #0]
 8001f26:	2b00      	cmp	r3, #0
 8001f28:	d0fb      	beq.n	8001f22 <rt_resort_prio+0x12>
 8001f2a:	4608      	mov	r0, r1
 8001f2c:	f7ff ffda 	bl	8001ee4 <rt_rmv_list>
 8001f30:	4620      	mov	r0, r4
 8001f32:	e8bd 4010 	ldmia.w	sp!, {r4, lr}
 8001f36:	f7ff bf45 	b.w	8001dc4 <rt_put_prio>
 8001f3a:	bd10      	pop	{r4, pc}
 8001f3c:	20002fc8 	.word	0x20002fc8

08001f40 <rt_rmv_dly>:
 8001f40:	6903      	ldr	r3, [r0, #16]
 8001f42:	b510      	push	{r4, lr}
 8001f44:	b163      	cbz	r3, 8001f60 <rt_rmv_dly+0x20>
 8001f46:	68c2      	ldr	r2, [r0, #12]
 8001f48:	60da      	str	r2, [r3, #12]
 8001f4a:	68c2      	ldr	r2, [r0, #12]
 8001f4c:	b14a      	cbz	r2, 8001f62 <rt_rmv_dly+0x22>
 8001f4e:	8a99      	ldrh	r1, [r3, #20]
 8001f50:	8a84      	ldrh	r4, [r0, #20]
 8001f52:	4421      	add	r1, r4
 8001f54:	8299      	strh	r1, [r3, #20]
 8001f56:	6113      	str	r3, [r2, #16]
 8001f58:	2300      	movs	r3, #0
 8001f5a:	60c3      	str	r3, [r0, #12]
 8001f5c:	2300      	movs	r3, #0
 8001f5e:	6103      	str	r3, [r0, #16]
 8001f60:	bd10      	pop	{r4, pc}
 8001f62:	829a      	strh	r2, [r3, #20]
 8001f64:	e7fa      	b.n	8001f5c <rt_rmv_dly+0x1c>
	...

08001f68 <rt_psq_enq>:
 8001f68:	b470      	push	{r4, r5, r6}
 8001f6a:	4b11      	ldr	r3, [pc, #68]	; (8001fb0 <rt_psq_enq+0x48>)
 8001f6c:	78dd      	ldrb	r5, [r3, #3]
 8001f6e:	f3ef 8610 	mrs	r6, PRIMASK
 8001f72:	f3ef 8210 	mrs	r2, PRIMASK
 8001f76:	b672      	cpsid	i
 8001f78:	789a      	ldrb	r2, [r3, #2]
 8001f7a:	4295      	cmp	r5, r2
 8001f7c:	d911      	bls.n	8001fa2 <rt_psq_enq+0x3a>
 8001f7e:	3201      	adds	r2, #1
 8001f80:	709a      	strb	r2, [r3, #2]
 8001f82:	781a      	ldrb	r2, [r3, #0]
 8001f84:	1c54      	adds	r4, r2, #1
 8001f86:	42a5      	cmp	r5, r4
 8001f88:	bf08      	it	eq
 8001f8a:	2400      	moveq	r4, #0
 8001f8c:	701c      	strb	r4, [r3, #0]
 8001f8e:	b906      	cbnz	r6, 8001f92 <rt_psq_enq+0x2a>
 8001f90:	b662      	cpsie	i
 8001f92:	4295      	cmp	r5, r2
 8001f94:	d907      	bls.n	8001fa6 <rt_psq_enq+0x3e>
 8001f96:	eb03 03c2 	add.w	r3, r3, r2, lsl #3
 8001f9a:	bc70      	pop	{r4, r5, r6}
 8001f9c:	6058      	str	r0, [r3, #4]
 8001f9e:	6099      	str	r1, [r3, #8]
 8001fa0:	4770      	bx	lr
 8001fa2:	2e00      	cmp	r6, #0
 8001fa4:	d0f4      	beq.n	8001f90 <rt_psq_enq+0x28>
 8001fa6:	2002      	movs	r0, #2
 8001fa8:	bc70      	pop	{r4, r5, r6}
 8001faa:	f7ff bebd 	b.w	8001d28 <os_error>
 8001fae:	bf00      	nop
 8001fb0:	20002600 	.word	0x20002600

08001fb4 <rt_psh_req>:
 8001fb4:	4b05      	ldr	r3, [pc, #20]	; (8001fcc <rt_psh_req+0x18>)
 8001fb6:	781b      	ldrb	r3, [r3, #0]
 8001fb8:	b923      	cbnz	r3, 8001fc4 <rt_psh_req+0x10>
 8001fba:	4b05      	ldr	r3, [pc, #20]	; (8001fd0 <rt_psh_req+0x1c>)
 8001fbc:	f04f 5280 	mov.w	r2, #268435456	; 0x10000000
 8001fc0:	601a      	str	r2, [r3, #0]
 8001fc2:	4770      	bx	lr
 8001fc4:	4b03      	ldr	r3, [pc, #12]	; (8001fd4 <rt_psh_req+0x20>)
 8001fc6:	2201      	movs	r2, #1
 8001fc8:	701a      	strb	r2, [r3, #0]
 8001fca:	4770      	bx	lr
 8001fcc:	20001f0c 	.word	0x20001f0c
 8001fd0:	e000ed04 	.word	0xe000ed04
 8001fd4:	20001f0d 	.word	0x20001f0d

08001fd8 <rt_pop_req>:
 8001fd8:	b538      	push	{r3, r4, r5, lr}
 8001fda:	4b1a      	ldr	r3, [pc, #104]	; (8002044 <rt_pop_req+0x6c>)
 8001fdc:	4c1a      	ldr	r4, [pc, #104]	; (8002048 <rt_pop_req+0x70>)
 8001fde:	6818      	ldr	r0, [r3, #0]
 8001fe0:	2301      	movs	r3, #1
 8001fe2:	7043      	strb	r3, [r0, #1]
 8001fe4:	f7ff ff18 	bl	8001e18 <rt_put_rdy_first>
 8001fe8:	7865      	ldrb	r5, [r4, #1]
 8001fea:	78a3      	ldrb	r3, [r4, #2]
 8001fec:	b93b      	cbnz	r3, 8001ffe <rt_pop_req+0x26>
 8001fee:	4817      	ldr	r0, [pc, #92]	; (800204c <rt_pop_req+0x74>)
 8001ff0:	7065      	strb	r5, [r4, #1]
 8001ff2:	f7ff feff 	bl	8001df4 <rt_get_first>
 8001ff6:	e8bd 4038 	ldmia.w	sp!, {r3, r4, r5, lr}
 8001ffa:	f001 b873 	b.w	80030e4 <rt_switch_req>
 8001ffe:	eb04 03c5 	add.w	r3, r4, r5, lsl #3
 8002002:	6858      	ldr	r0, [r3, #4]
 8002004:	7802      	ldrb	r2, [r0, #0]
 8002006:	b99a      	cbnz	r2, 8002030 <rt_pop_req+0x58>
 8002008:	8919      	ldrh	r1, [r3, #8]
 800200a:	f000 fb75 	bl	80026f8 <rt_evt_psh>
 800200e:	78e3      	ldrb	r3, [r4, #3]
 8002010:	3501      	adds	r5, #1
 8002012:	429d      	cmp	r5, r3
 8002014:	bf08      	it	eq
 8002016:	2500      	moveq	r5, #0
 8002018:	f3ef 8310 	mrs	r3, PRIMASK
 800201c:	f3ef 8210 	mrs	r2, PRIMASK
 8002020:	b672      	cpsid	i
 8002022:	78a2      	ldrb	r2, [r4, #2]
 8002024:	3a01      	subs	r2, #1
 8002026:	70a2      	strb	r2, [r4, #2]
 8002028:	2b00      	cmp	r3, #0
 800202a:	d1de      	bne.n	8001fea <rt_pop_req+0x12>
 800202c:	b662      	cpsie	i
 800202e:	e7dc      	b.n	8001fea <rt_pop_req+0x12>
 8002030:	2a01      	cmp	r2, #1
 8002032:	d103      	bne.n	800203c <rt_pop_req+0x64>
 8002034:	6899      	ldr	r1, [r3, #8]
 8002036:	f000 f993 	bl	8002360 <rt_mbx_psh>
 800203a:	e7e8      	b.n	800200e <rt_pop_req+0x36>
 800203c:	f001 fb06 	bl	800364c <rt_sem_psh>
 8002040:	e7e5      	b.n	800200e <rt_pop_req+0x36>
 8002042:	bf00      	nop
 8002044:	20003014 	.word	0x20003014
 8002048:	20002600 	.word	0x20002600
 800204c:	20002fc8 	.word	0x20002fc8

08002050 <os_tick_init>:
 8002050:	4b08      	ldr	r3, [pc, #32]	; (8002074 <os_tick_init+0x24>)
 8002052:	681a      	ldr	r2, [r3, #0]
 8002054:	4b08      	ldr	r3, [pc, #32]	; (8002078 <os_tick_init+0x28>)
 8002056:	601a      	str	r2, [r3, #0]
 8002058:	2200      	movs	r2, #0
 800205a:	605a      	str	r2, [r3, #4]
 800205c:	2207      	movs	r2, #7
 800205e:	f843 2c04 	str.w	r2, [r3, #-4]
 8002062:	4a06      	ldr	r2, [pc, #24]	; (800207c <os_tick_init+0x2c>)
 8002064:	6813      	ldr	r3, [r2, #0]
 8002066:	f043 437f 	orr.w	r3, r3, #4278190080	; 0xff000000
 800206a:	6013      	str	r3, [r2, #0]
 800206c:	f04f 30ff 	mov.w	r0, #4294967295	; 0xffffffff
 8002070:	4770      	bx	lr
 8002072:	bf00      	nop
 8002074:	080084b0 	.word	0x080084b0
 8002078:	e000e014 	.word	0xe000e014
 800207c:	e000ed20 	.word	0xe000ed20

08002080 <os_tick_irqack>:
 8002080:	4770      	bx	lr
	...

08002084 <rt_systick>:
 8002084:	b508      	push	{r3, lr}
 8002086:	4b0b      	ldr	r3, [pc, #44]	; (80020b4 <rt_systick+0x30>)
 8002088:	6818      	ldr	r0, [r3, #0]
 800208a:	2301      	movs	r3, #1
 800208c:	7043      	strb	r3, [r0, #1]
 800208e:	f7ff fec3 	bl	8001e18 <rt_put_rdy_first>
 8002092:	f000 fb67 	bl	8002764 <rt_chk_robin>
 8002096:	4a08      	ldr	r2, [pc, #32]	; (80020b8 <rt_systick+0x34>)
 8002098:	6813      	ldr	r3, [r2, #0]
 800209a:	3301      	adds	r3, #1
 800209c:	6013      	str	r3, [r2, #0]
 800209e:	f7ff fee9 	bl	8001e74 <rt_dec_dly>
 80020a2:	f000 ffa7 	bl	8002ff4 <sysTimerTick>
 80020a6:	4805      	ldr	r0, [pc, #20]	; (80020bc <rt_systick+0x38>)
 80020a8:	f7ff fea4 	bl	8001df4 <rt_get_first>
 80020ac:	e8bd 4008 	ldmia.w	sp!, {r3, lr}
 80020b0:	f001 b818 	b.w	80030e4 <rt_switch_req>
 80020b4:	20003014 	.word	0x20003014
 80020b8:	2000305c 	.word	0x2000305c
 80020bc:	20002fc8 	.word	0x20002fc8

080020c0 <rt_stk_check>:
 80020c0:	4b06      	ldr	r3, [pc, #24]	; (80020dc <rt_stk_check+0x1c>)
 80020c2:	681a      	ldr	r2, [r3, #0]
 80020c4:	6b13      	ldr	r3, [r2, #48]	; 0x30
 80020c6:	6ad2      	ldr	r2, [r2, #44]	; 0x2c
 80020c8:	4293      	cmp	r3, r2
 80020ca:	d803      	bhi.n	80020d4 <rt_stk_check+0x14>
 80020cc:	681a      	ldr	r2, [r3, #0]
 80020ce:	4b04      	ldr	r3, [pc, #16]	; (80020e0 <rt_stk_check+0x20>)
 80020d0:	429a      	cmp	r2, r3
 80020d2:	d002      	beq.n	80020da <rt_stk_check+0x1a>
 80020d4:	2001      	movs	r0, #1
 80020d6:	f7ff be27 	b.w	8001d28 <os_error>
 80020da:	4770      	bx	lr
 80020dc:	20003014 	.word	0x20003014
 80020e0:	e25a2ea5 	.word	0xe25a2ea5

080020e4 <rt_init_stack>:
 80020e4:	6a83      	ldr	r3, [r0, #40]	; 0x28
 80020e6:	089b      	lsrs	r3, r3, #2
 80020e8:	bf04      	itt	eq
 80020ea:	4b22      	ldreq	r3, [pc, #136]	; (8002174 <rt_init_stack+0x90>)
 80020ec:	881b      	ldrheq	r3, [r3, #0]
 80020ee:	b5f0      	push	{r4, r5, r6, r7, lr}
 80020f0:	6b05      	ldr	r5, [r0, #48]	; 0x30
 80020f2:	bf08      	it	eq
 80020f4:	089b      	lsreq	r3, r3, #2
 80020f6:	eb05 0283 	add.w	r2, r5, r3, lsl #2
 80020fa:	0754      	lsls	r4, r2, #29
 80020fc:	bf48      	it	mi
 80020fe:	3a04      	submi	r2, #4
 8002100:	f04f 7680 	mov.w	r6, #16777216	; 0x1000000
 8002104:	e902 0042 	stmdb	r2, {r1, r6}
 8002108:	f1a2 0440 	sub.w	r4, r2, #64	; 0x40
 800210c:	f1a2 0644 	sub.w	r6, r2, #68	; 0x44
 8002110:	f1a2 070c 	sub.w	r7, r2, #12
 8002114:	f04f 0e00 	mov.w	lr, #0
 8002118:	f846 ef04 	str.w	lr, [r6, #4]!
 800211c:	42be      	cmp	r6, r7
 800211e:	d1fb      	bne.n	8002118 <rt_init_stack+0x34>
 8002120:	69c6      	ldr	r6, [r0, #28]
 8002122:	f842 6c20 	str.w	r6, [r2, #-32]
 8002126:	6341      	str	r1, [r0, #52]	; 0x34
 8002128:	4912      	ldr	r1, [pc, #72]	; (8002174 <rt_init_stack+0x90>)
 800212a:	62c4      	str	r4, [r0, #44]	; 0x2c
 800212c:	6809      	ldr	r1, [r1, #0]
 800212e:	00c9      	lsls	r1, r1, #3
 8002130:	d517      	bpl.n	8002162 <rt_init_stack+0x7e>
 8002132:	2b11      	cmp	r3, #17
 8002134:	d915      	bls.n	8002162 <rt_init_stack+0x7e>
 8002136:	3b10      	subs	r3, #16
 8002138:	f06f 0107 	mvn.w	r1, #7
 800213c:	085b      	lsrs	r3, r3, #1
 800213e:	434b      	muls	r3, r1
 8002140:	f1a3 0138 	sub.w	r1, r3, #56	; 0x38
 8002144:	440a      	add	r2, r1
 8002146:	f04f 30cc 	mov.w	r0, #3435973836	; 0xcccccccc
 800214a:	4621      	mov	r1, r4
 800214c:	4291      	cmp	r1, r2
 800214e:	d10b      	bne.n	8002168 <rt_init_stack+0x84>
 8002150:	3308      	adds	r3, #8
 8002152:	441c      	add	r4, r3
 8002154:	1f23      	subs	r3, r4, #4
 8002156:	429d      	cmp	r5, r3
 8002158:	bf3c      	itt	cc
 800215a:	f04f 33cc 	movcc.w	r3, #3435973836	; 0xcccccccc
 800215e:	f844 3c04 	strcc.w	r3, [r4, #-4]
 8002162:	4b05      	ldr	r3, [pc, #20]	; (8002178 <rt_init_stack+0x94>)
 8002164:	602b      	str	r3, [r5, #0]
 8002166:	bdf0      	pop	{r4, r5, r6, r7, pc}
 8002168:	f841 0c04 	str.w	r0, [r1, #-4]
 800216c:	f841 0d08 	str.w	r0, [r1, #-8]!
 8002170:	e7ec      	b.n	800214c <rt_init_stack+0x68>
 8002172:	bf00      	nop
 8002174:	08008498 	.word	0x08008498
 8002178:	e25a2ea5 	.word	0xe25a2ea5

0800217c <rt_ret_val>:
 800217c:	f890 2025 	ldrb.w	r2, [r0, #37]	; 0x25
 8002180:	6ac3      	ldr	r3, [r0, #44]	; 0x2c
 8002182:	b112      	cbz	r2, 800218a <rt_ret_val+0xe>
 8002184:	3360      	adds	r3, #96	; 0x60
 8002186:	6019      	str	r1, [r3, #0]
 8002188:	4770      	bx	lr
 800218a:	3320      	adds	r3, #32
 800218c:	e7fb      	b.n	8002186 <rt_ret_val+0xa>

0800218e <rt_ret_val2>:
 800218e:	b510      	push	{r4, lr}
 8002190:	f890 4025 	ldrb.w	r4, [r0, #37]	; 0x25
 8002194:	6ac3      	ldr	r3, [r0, #44]	; 0x2c
 8002196:	b11c      	cbz	r4, 80021a0 <rt_ret_val2+0x12>
 8002198:	3360      	adds	r3, #96	; 0x60
 800219a:	e883 0006 	stmia.w	r3, {r1, r2}
 800219e:	bd10      	pop	{r4, pc}
 80021a0:	3320      	adds	r3, #32
 80021a2:	e7fa      	b.n	800219a <rt_ret_val2+0xc>

080021a4 <_init_box>:
 80021a4:	2a00      	cmp	r2, #0
 80021a6:	bfbb      	ittet	lt
 80021a8:	f022 4200 	biclt.w	r2, r2, #2147483648	; 0x80000000
 80021ac:	3207      	addlt	r2, #7
 80021ae:	3203      	addge	r2, #3
 80021b0:	f022 0207 	biclt.w	r2, r2, #7
 80021b4:	bfa8      	it	ge
 80021b6:	f022 0203 	bicge.w	r2, r2, #3
 80021ba:	b510      	push	{r4, lr}
 80021bc:	bfb4      	ite	lt
 80021be:	2310      	movlt	r3, #16
 80021c0:	230c      	movge	r3, #12
 80021c2:	b192      	cbz	r2, 80021ea <_init_box+0x46>
 80021c4:	18d4      	adds	r4, r2, r3
 80021c6:	428c      	cmp	r4, r1
 80021c8:	d80f      	bhi.n	80021ea <_init_box+0x46>
 80021ca:	4401      	add	r1, r0
 80021cc:	4403      	add	r3, r0
 80021ce:	4254      	negs	r4, r2
 80021d0:	6041      	str	r1, [r0, #4]
 80021d2:	6003      	str	r3, [r0, #0]
 80021d4:	6082      	str	r2, [r0, #8]
 80021d6:	4421      	add	r1, r4
 80021d8:	1898      	adds	r0, r3, r2
 80021da:	4281      	cmp	r1, r0
 80021dc:	d302      	bcc.n	80021e4 <_init_box+0x40>
 80021de:	5100      	str	r0, [r0, r4]
 80021e0:	4603      	mov	r3, r0
 80021e2:	e7f9      	b.n	80021d8 <_init_box+0x34>
 80021e4:	2000      	movs	r0, #0
 80021e6:	6018      	str	r0, [r3, #0]
 80021e8:	bd10      	pop	{r4, pc}
 80021ea:	2001      	movs	r0, #1
 80021ec:	bd10      	pop	{r4, pc}

080021ee <rt_alloc_box>:
 80021ee:	f3ef 8310 	mrs	r3, PRIMASK
 80021f2:	b672      	cpsid	i
 80021f4:	6802      	ldr	r2, [r0, #0]
 80021f6:	f003 0301 	and.w	r3, r3, #1
 80021fa:	b10a      	cbz	r2, 8002200 <rt_alloc_box+0x12>
 80021fc:	6811      	ldr	r1, [r2, #0]
 80021fe:	6001      	str	r1, [r0, #0]
 8002200:	b903      	cbnz	r3, 8002204 <rt_alloc_box+0x16>
 8002202:	b662      	cpsie	i
 8002204:	4610      	mov	r0, r2
 8002206:	4770      	bx	lr

08002208 <rt_free_box>:
 8002208:	4281      	cmp	r1, r0
 800220a:	d30d      	bcc.n	8002228 <rt_free_box+0x20>
 800220c:	6843      	ldr	r3, [r0, #4]
 800220e:	4299      	cmp	r1, r3
 8002210:	d20a      	bcs.n	8002228 <rt_free_box+0x20>
 8002212:	f3ef 8310 	mrs	r3, PRIMASK
 8002216:	b672      	cpsid	i
 8002218:	6802      	ldr	r2, [r0, #0]
 800221a:	600a      	str	r2, [r1, #0]
 800221c:	6001      	str	r1, [r0, #0]
 800221e:	f013 0001 	ands.w	r0, r3, #1
 8002222:	d103      	bne.n	800222c <rt_free_box+0x24>
 8002224:	b662      	cpsie	i
 8002226:	4770      	bx	lr
 8002228:	2001      	movs	r0, #1
 800222a:	4770      	bx	lr
 800222c:	2000      	movs	r0, #0
 800222e:	4770      	bx	lr

08002230 <rt_mbx_init>:
 8002230:	2301      	movs	r3, #1
 8002232:	3910      	subs	r1, #16
 8002234:	7003      	strb	r3, [r0, #0]
 8002236:	0889      	lsrs	r1, r1, #2
 8002238:	2300      	movs	r3, #0
 800223a:	7043      	strb	r3, [r0, #1]
 800223c:	7083      	strb	r3, [r0, #2]
 800223e:	6043      	str	r3, [r0, #4]
 8002240:	8103      	strh	r3, [r0, #8]
 8002242:	8143      	strh	r3, [r0, #10]
 8002244:	8183      	strh	r3, [r0, #12]
 8002246:	81c1      	strh	r1, [r0, #14]
 8002248:	4770      	bx	lr
	...

0800224c <rt_mbx_wait>:
 800224c:	b570      	push	{r4, r5, r6, lr}
 800224e:	8985      	ldrh	r5, [r0, #12]
 8002250:	4604      	mov	r4, r0
 8002252:	4616      	mov	r6, r2
 8002254:	2d00      	cmp	r5, #0
 8002256:	d038      	beq.n	80022ca <rt_mbx_wait+0x7e>
 8002258:	8943      	ldrh	r3, [r0, #10]
 800225a:	1d1a      	adds	r2, r3, #4
 800225c:	3301      	adds	r3, #1
 800225e:	f850 2022 	ldr.w	r2, [r0, r2, lsl #2]
 8002262:	600a      	str	r2, [r1, #0]
 8002264:	89c2      	ldrh	r2, [r0, #14]
 8002266:	b29b      	uxth	r3, r3
 8002268:	429a      	cmp	r2, r3
 800226a:	8143      	strh	r3, [r0, #10]
 800226c:	bf04      	itt	eq
 800226e:	2300      	moveq	r3, #0
 8002270:	8143      	strheq	r3, [r0, #10]
 8002272:	6843      	ldr	r3, [r0, #4]
 8002274:	b1f3      	cbz	r3, 80022b4 <rt_mbx_wait+0x68>
 8002276:	7843      	ldrb	r3, [r0, #1]
 8002278:	2b02      	cmp	r3, #2
 800227a:	d11b      	bne.n	80022b4 <rt_mbx_wait+0x68>
 800227c:	f7ff fdba 	bl	8001df4 <rt_get_first>
 8002280:	2100      	movs	r1, #0
 8002282:	4605      	mov	r5, r0
 8002284:	f7ff ff7a 	bl	800217c <rt_ret_val>
 8002288:	8923      	ldrh	r3, [r4, #8]
 800228a:	69e9      	ldr	r1, [r5, #28]
 800228c:	1d1a      	adds	r2, r3, #4
 800228e:	3301      	adds	r3, #1
 8002290:	f844 1022 	str.w	r1, [r4, r2, lsl #2]
 8002294:	89e2      	ldrh	r2, [r4, #14]
 8002296:	b29b      	uxth	r3, r3
 8002298:	429a      	cmp	r2, r3
 800229a:	8123      	strh	r3, [r4, #8]
 800229c:	bf08      	it	eq
 800229e:	2300      	moveq	r3, #0
 80022a0:	4628      	mov	r0, r5
 80022a2:	bf08      	it	eq
 80022a4:	8123      	strheq	r3, [r4, #8]
 80022a6:	f7ff fe4b 	bl	8001f40 <rt_rmv_dly>
 80022aa:	4628      	mov	r0, r5
 80022ac:	f000 ff34 	bl	8003118 <rt_dispatch>
 80022b0:	2000      	movs	r0, #0
 80022b2:	bd70      	pop	{r4, r5, r6, pc}
 80022b4:	f3ef 8010 	mrs	r0, PRIMASK
 80022b8:	f3ef 8310 	mrs	r3, PRIMASK
 80022bc:	b672      	cpsid	i
 80022be:	3d01      	subs	r5, #1
 80022c0:	81a5      	strh	r5, [r4, #12]
 80022c2:	2800      	cmp	r0, #0
 80022c4:	d1f4      	bne.n	80022b0 <rt_mbx_wait+0x64>
 80022c6:	b662      	cpsie	i
 80022c8:	bd70      	pop	{r4, r5, r6, pc}
 80022ca:	b14a      	cbz	r2, 80022e0 <rt_mbx_wait+0x94>
 80022cc:	6842      	ldr	r2, [r0, #4]
 80022ce:	4b09      	ldr	r3, [pc, #36]	; (80022f4 <rt_mbx_wait+0xa8>)
 80022d0:	b142      	cbz	r2, 80022e4 <rt_mbx_wait+0x98>
 80022d2:	6819      	ldr	r1, [r3, #0]
 80022d4:	f7ff fd76 	bl	8001dc4 <rt_put_prio>
 80022d8:	2108      	movs	r1, #8
 80022da:	4630      	mov	r0, r6
 80022dc:	f000 ff40 	bl	8003160 <rt_block>
 80022e0:	2001      	movs	r0, #1
 80022e2:	bd70      	pop	{r4, r5, r6, pc}
 80022e4:	681b      	ldr	r3, [r3, #0]
 80022e6:	6043      	str	r3, [r0, #4]
 80022e8:	605a      	str	r2, [r3, #4]
 80022ea:	6098      	str	r0, [r3, #8]
 80022ec:	2301      	movs	r3, #1
 80022ee:	7043      	strb	r3, [r0, #1]
 80022f0:	e7f2      	b.n	80022d8 <rt_mbx_wait+0x8c>
 80022f2:	bf00      	nop
 80022f4:	20003014 	.word	0x20003014

080022f8 <rt_mbx_check>:
 80022f8:	89c2      	ldrh	r2, [r0, #14]
 80022fa:	8980      	ldrh	r0, [r0, #12]
 80022fc:	1a10      	subs	r0, r2, r0
 80022fe:	4770      	bx	lr

08002300 <isr_mbx_send>:
 8002300:	b508      	push	{r3, lr}
 8002302:	f7ff fe31 	bl	8001f68 <rt_psq_enq>
 8002306:	e8bd 4008 	ldmia.w	sp!, {r3, lr}
 800230a:	f7ff be53 	b.w	8001fb4 <rt_psh_req>

0800230e <isr_mbx_receive>:
 800230e:	8983      	ldrh	r3, [r0, #12]
 8002310:	b510      	push	{r4, lr}
 8002312:	4604      	mov	r4, r0
 8002314:	b30b      	cbz	r3, 800235a <isr_mbx_receive+0x4c>
 8002316:	8943      	ldrh	r3, [r0, #10]
 8002318:	3304      	adds	r3, #4
 800231a:	f850 3023 	ldr.w	r3, [r0, r3, lsl #2]
 800231e:	600b      	str	r3, [r1, #0]
 8002320:	7843      	ldrb	r3, [r0, #1]
 8002322:	2b02      	cmp	r3, #2
 8002324:	d104      	bne.n	8002330 <isr_mbx_receive+0x22>
 8002326:	2100      	movs	r1, #0
 8002328:	f7ff fe1e 	bl	8001f68 <rt_psq_enq>
 800232c:	f7ff fe42 	bl	8001fb4 <rt_psh_req>
 8002330:	f3ef 8310 	mrs	r3, PRIMASK
 8002334:	f3ef 8210 	mrs	r2, PRIMASK
 8002338:	b672      	cpsid	i
 800233a:	89a2      	ldrh	r2, [r4, #12]
 800233c:	3a01      	subs	r2, #1
 800233e:	81a2      	strh	r2, [r4, #12]
 8002340:	b903      	cbnz	r3, 8002344 <isr_mbx_receive+0x36>
 8002342:	b662      	cpsie	i
 8002344:	8963      	ldrh	r3, [r4, #10]
 8002346:	89e2      	ldrh	r2, [r4, #14]
 8002348:	3301      	adds	r3, #1
 800234a:	b29b      	uxth	r3, r3
 800234c:	429a      	cmp	r2, r3
 800234e:	8163      	strh	r3, [r4, #10]
 8002350:	d101      	bne.n	8002356 <isr_mbx_receive+0x48>
 8002352:	2300      	movs	r3, #0
 8002354:	8163      	strh	r3, [r4, #10]
 8002356:	2004      	movs	r0, #4
 8002358:	bd10      	pop	{r4, pc}
 800235a:	4618      	mov	r0, r3
 800235c:	bd10      	pop	{r4, pc}
	...

08002360 <rt_mbx_psh>:
 8002360:	6843      	ldr	r3, [r0, #4]
 8002362:	b570      	push	{r4, r5, r6, lr}
 8002364:	4604      	mov	r4, r0
 8002366:	460e      	mov	r6, r1
 8002368:	2b00      	cmp	r3, #0
 800236a:	d04b      	beq.n	8002404 <rt_mbx_psh+0xa4>
 800236c:	7845      	ldrb	r5, [r0, #1]
 800236e:	2d02      	cmp	r5, #2
 8002370:	d020      	beq.n	80023b4 <rt_mbx_psh+0x54>
 8002372:	2d03      	cmp	r5, #3
 8002374:	d00a      	beq.n	800238c <rt_mbx_psh+0x2c>
 8002376:	2d01      	cmp	r5, #1
 8002378:	d161      	bne.n	800243e <rt_mbx_psh+0xde>
 800237a:	f7ff fd3b 	bl	8001df4 <rt_get_first>
 800237e:	4604      	mov	r4, r0
 8002380:	4632      	mov	r2, r6
 8002382:	2110      	movs	r1, #16
 8002384:	f7ff ff03 	bl	800218e <rt_ret_val2>
 8002388:	7065      	strb	r5, [r4, #1]
 800238a:	e00e      	b.n	80023aa <rt_mbx_psh+0x4a>
 800238c:	4608      	mov	r0, r1
 800238e:	f7ff ff2e 	bl	80021ee <rt_alloc_box>
 8002392:	4605      	mov	r5, r0
 8002394:	2800      	cmp	r0, #0
 8002396:	d052      	beq.n	800243e <rt_mbx_psh+0xde>
 8002398:	4620      	mov	r0, r4
 800239a:	f7ff fd2b 	bl	8001df4 <rt_get_first>
 800239e:	4629      	mov	r1, r5
 80023a0:	4604      	mov	r4, r0
 80023a2:	f7ff feeb 	bl	800217c <rt_ret_val>
 80023a6:	2301      	movs	r3, #1
 80023a8:	7063      	strb	r3, [r4, #1]
 80023aa:	4620      	mov	r0, r4
 80023ac:	f7ff fdc8 	bl	8001f40 <rt_rmv_dly>
 80023b0:	4621      	mov	r1, r4
 80023b2:	e022      	b.n	80023fa <rt_mbx_psh+0x9a>
 80023b4:	f7ff fd1e 	bl	8001df4 <rt_get_first>
 80023b8:	2100      	movs	r1, #0
 80023ba:	4605      	mov	r5, r0
 80023bc:	f7ff fede 	bl	800217c <rt_ret_val>
 80023c0:	8923      	ldrh	r3, [r4, #8]
 80023c2:	69e9      	ldr	r1, [r5, #28]
 80023c4:	1d1a      	adds	r2, r3, #4
 80023c6:	f844 1022 	str.w	r1, [r4, r2, lsl #2]
 80023ca:	f3ef 8210 	mrs	r2, PRIMASK
 80023ce:	f3ef 8110 	mrs	r1, PRIMASK
 80023d2:	b672      	cpsid	i
 80023d4:	89a1      	ldrh	r1, [r4, #12]
 80023d6:	3101      	adds	r1, #1
 80023d8:	81a1      	strh	r1, [r4, #12]
 80023da:	b902      	cbnz	r2, 80023de <rt_mbx_psh+0x7e>
 80023dc:	b662      	cpsie	i
 80023de:	89e2      	ldrh	r2, [r4, #14]
 80023e0:	3301      	adds	r3, #1
 80023e2:	b29b      	uxth	r3, r3
 80023e4:	429a      	cmp	r2, r3
 80023e6:	8123      	strh	r3, [r4, #8]
 80023e8:	bf04      	itt	eq
 80023ea:	2300      	moveq	r3, #0
 80023ec:	8123      	strheq	r3, [r4, #8]
 80023ee:	2301      	movs	r3, #1
 80023f0:	706b      	strb	r3, [r5, #1]
 80023f2:	4628      	mov	r0, r5
 80023f4:	f7ff fda4 	bl	8001f40 <rt_rmv_dly>
 80023f8:	4629      	mov	r1, r5
 80023fa:	4811      	ldr	r0, [pc, #68]	; (8002440 <rt_mbx_psh+0xe0>)
 80023fc:	e8bd 4070 	ldmia.w	sp!, {r4, r5, r6, lr}
 8002400:	f7ff bce0 	b.w	8001dc4 <rt_put_prio>
 8002404:	8980      	ldrh	r0, [r0, #12]
 8002406:	89e1      	ldrh	r1, [r4, #14]
 8002408:	4288      	cmp	r0, r1
 800240a:	d213      	bcs.n	8002434 <rt_mbx_psh+0xd4>
 800240c:	8923      	ldrh	r3, [r4, #8]
 800240e:	1d1a      	adds	r2, r3, #4
 8002410:	f844 6022 	str.w	r6, [r4, r2, lsl #2]
 8002414:	f3ef 8210 	mrs	r2, PRIMASK
 8002418:	f3ef 8510 	mrs	r5, PRIMASK
 800241c:	b672      	cpsid	i
 800241e:	3001      	adds	r0, #1
 8002420:	81a0      	strh	r0, [r4, #12]
 8002422:	b902      	cbnz	r2, 8002426 <rt_mbx_psh+0xc6>
 8002424:	b662      	cpsie	i
 8002426:	3301      	adds	r3, #1
 8002428:	b29b      	uxth	r3, r3
 800242a:	4299      	cmp	r1, r3
 800242c:	bf08      	it	eq
 800242e:	2300      	moveq	r3, #0
 8002430:	8123      	strh	r3, [r4, #8]
 8002432:	bd70      	pop	{r4, r5, r6, pc}
 8002434:	2003      	movs	r0, #3
 8002436:	e8bd 4070 	ldmia.w	sp!, {r4, r5, r6, lr}
 800243a:	f7ff bc75 	b.w	8001d28 <os_error>
 800243e:	bd70      	pop	{r4, r5, r6, pc}
 8002440:	20002fc8 	.word	0x20002fc8

08002444 <rt_mut_init>:
 8002444:	2303      	movs	r3, #3
 8002446:	7003      	strb	r3, [r0, #0]
 8002448:	2300      	movs	r3, #0
 800244a:	8043      	strh	r3, [r0, #2]
 800244c:	6043      	str	r3, [r0, #4]
 800244e:	6083      	str	r3, [r0, #8]
 8002450:	60c3      	str	r3, [r0, #12]
 8002452:	4770      	bx	lr

08002454 <rt_mut_delete>:
 8002454:	b5f8      	push	{r3, r4, r5, r6, r7, lr}
 8002456:	8843      	ldrh	r3, [r0, #2]
 8002458:	4604      	mov	r4, r0
 800245a:	b19b      	cbz	r3, 8002484 <rt_mut_delete+0x30>
 800245c:	6880      	ldr	r0, [r0, #8]
 800245e:	6a03      	ldr	r3, [r0, #32]
 8002460:	429c      	cmp	r4, r3
 8002462:	d128      	bne.n	80024b6 <rt_mut_delete+0x62>
 8002464:	68e3      	ldr	r3, [r4, #12]
 8002466:	6203      	str	r3, [r0, #32]
 8002468:	f890 3024 	ldrb.w	r3, [r0, #36]	; 0x24
 800246c:	6a02      	ldr	r2, [r0, #32]
 800246e:	bb52      	cbnz	r2, 80024c6 <rt_mut_delete+0x72>
 8002470:	7882      	ldrb	r2, [r0, #2]
 8002472:	429a      	cmp	r2, r3
 8002474:	d006      	beq.n	8002484 <rt_mut_delete+0x30>
 8002476:	7083      	strb	r3, [r0, #2]
 8002478:	4b1f      	ldr	r3, [pc, #124]	; (80024f8 <rt_mut_delete+0xa4>)
 800247a:	681b      	ldr	r3, [r3, #0]
 800247c:	4298      	cmp	r0, r3
 800247e:	d001      	beq.n	8002484 <rt_mut_delete+0x30>
 8002480:	f7ff fd46 	bl	8001f10 <rt_resort_prio>
 8002484:	4f1d      	ldr	r7, [pc, #116]	; (80024fc <rt_mut_delete+0xa8>)
 8002486:	2601      	movs	r6, #1
 8002488:	6865      	ldr	r5, [r4, #4]
 800248a:	bb25      	cbnz	r5, 80024d6 <rt_mut_delete+0x82>
 800248c:	481b      	ldr	r0, [pc, #108]	; (80024fc <rt_mut_delete+0xa8>)
 800248e:	6843      	ldr	r3, [r0, #4]
 8002490:	b16b      	cbz	r3, 80024ae <rt_mut_delete+0x5a>
 8002492:	4e19      	ldr	r6, [pc, #100]	; (80024f8 <rt_mut_delete+0xa4>)
 8002494:	789a      	ldrb	r2, [r3, #2]
 8002496:	6831      	ldr	r1, [r6, #0]
 8002498:	788b      	ldrb	r3, [r1, #2]
 800249a:	429a      	cmp	r2, r3
 800249c:	d907      	bls.n	80024ae <rt_mut_delete+0x5a>
 800249e:	f7ff fc91 	bl	8001dc4 <rt_put_prio>
 80024a2:	6833      	ldr	r3, [r6, #0]
 80024a4:	2201      	movs	r2, #1
 80024a6:	705a      	strb	r2, [r3, #1]
 80024a8:	4628      	mov	r0, r5
 80024aa:	f000 fe35 	bl	8003118 <rt_dispatch>
 80024ae:	2000      	movs	r0, #0
 80024b0:	7020      	strb	r0, [r4, #0]
 80024b2:	bdf8      	pop	{r3, r4, r5, r6, r7, pc}
 80024b4:	4613      	mov	r3, r2
 80024b6:	2b00      	cmp	r3, #0
 80024b8:	d0d6      	beq.n	8002468 <rt_mut_delete+0x14>
 80024ba:	68da      	ldr	r2, [r3, #12]
 80024bc:	4294      	cmp	r4, r2
 80024be:	d1f9      	bne.n	80024b4 <rt_mut_delete+0x60>
 80024c0:	68e2      	ldr	r2, [r4, #12]
 80024c2:	60da      	str	r2, [r3, #12]
 80024c4:	e7d0      	b.n	8002468 <rt_mut_delete+0x14>
 80024c6:	6851      	ldr	r1, [r2, #4]
 80024c8:	b119      	cbz	r1, 80024d2 <rt_mut_delete+0x7e>
 80024ca:	7889      	ldrb	r1, [r1, #2]
 80024cc:	428b      	cmp	r3, r1
 80024ce:	bf38      	it	cc
 80024d0:	460b      	movcc	r3, r1
 80024d2:	68d2      	ldr	r2, [r2, #12]
 80024d4:	e7cb      	b.n	800246e <rt_mut_delete+0x1a>
 80024d6:	4620      	mov	r0, r4
 80024d8:	f7ff fc8c 	bl	8001df4 <rt_get_first>
 80024dc:	2100      	movs	r1, #0
 80024de:	4605      	mov	r5, r0
 80024e0:	f7ff fe4c 	bl	800217c <rt_ret_val>
 80024e4:	4628      	mov	r0, r5
 80024e6:	f7ff fd2b 	bl	8001f40 <rt_rmv_dly>
 80024ea:	706e      	strb	r6, [r5, #1]
 80024ec:	4629      	mov	r1, r5
 80024ee:	4638      	mov	r0, r7
 80024f0:	f7ff fc68 	bl	8001dc4 <rt_put_prio>
 80024f4:	e7c8      	b.n	8002488 <rt_mut_delete+0x34>
 80024f6:	bf00      	nop
 80024f8:	20003014 	.word	0x20003014
 80024fc:	20002fc8 	.word	0x20002fc8

08002500 <rt_mut_release>:
 8002500:	e92d 43f8 	stmdb	sp!, {r3, r4, r5, r6, r7, r8, r9, lr}
 8002504:	8843      	ldrh	r3, [r0, #2]
 8002506:	4605      	mov	r5, r0
 8002508:	2b00      	cmp	r3, #0
 800250a:	d063      	beq.n	80025d4 <rt_mut_release+0xd4>
 800250c:	4f32      	ldr	r7, [pc, #200]	; (80025d8 <rt_mut_release+0xd8>)
 800250e:	6881      	ldr	r1, [r0, #8]
 8002510:	683a      	ldr	r2, [r7, #0]
 8002512:	4291      	cmp	r1, r2
 8002514:	d15e      	bne.n	80025d4 <rt_mut_release+0xd4>
 8002516:	3b01      	subs	r3, #1
 8002518:	b29b      	uxth	r3, r3
 800251a:	8043      	strh	r3, [r0, #2]
 800251c:	b11b      	cbz	r3, 8002526 <rt_mut_release+0x26>
 800251e:	2400      	movs	r4, #0
 8002520:	4620      	mov	r0, r4
 8002522:	e8bd 83f8 	ldmia.w	sp!, {r3, r4, r5, r6, r7, r8, r9, pc}
 8002526:	6a0b      	ldr	r3, [r1, #32]
 8002528:	4298      	cmp	r0, r3
 800252a:	d129      	bne.n	8002580 <rt_mut_release+0x80>
 800252c:	68c3      	ldr	r3, [r0, #12]
 800252e:	620b      	str	r3, [r1, #32]
 8002530:	f891 3024 	ldrb.w	r3, [r1, #36]	; 0x24
 8002534:	6a0c      	ldr	r4, [r1, #32]
 8002536:	bb5c      	cbnz	r4, 8002590 <rt_mut_release+0x90>
 8002538:	708b      	strb	r3, [r1, #2]
 800253a:	686a      	ldr	r2, [r5, #4]
 800253c:	f8df 809c 	ldr.w	r8, [pc, #156]	; 80025dc <rt_mut_release+0xdc>
 8002540:	2a00      	cmp	r2, #0
 8002542:	d03b      	beq.n	80025bc <rt_mut_release+0xbc>
 8002544:	4628      	mov	r0, r5
 8002546:	f7ff fc55 	bl	8001df4 <rt_get_first>
 800254a:	4621      	mov	r1, r4
 800254c:	4606      	mov	r6, r0
 800254e:	f7ff fe15 	bl	800217c <rt_ret_val>
 8002552:	4630      	mov	r0, r6
 8002554:	f7ff fcf4 	bl	8001f40 <rt_rmv_dly>
 8002558:	6a33      	ldr	r3, [r6, #32]
 800255a:	60eb      	str	r3, [r5, #12]
 800255c:	f04f 0901 	mov.w	r9, #1
 8002560:	6839      	ldr	r1, [r7, #0]
 8002562:	f8d8 3004 	ldr.w	r3, [r8, #4]
 8002566:	f8a5 9002 	strh.w	r9, [r5, #2]
 800256a:	60ae      	str	r6, [r5, #8]
 800256c:	6235      	str	r5, [r6, #32]
 800256e:	788a      	ldrb	r2, [r1, #2]
 8002570:	789b      	ldrb	r3, [r3, #2]
 8002572:	429a      	cmp	r2, r3
 8002574:	d314      	bcc.n	80025a0 <rt_mut_release+0xa0>
 8002576:	4630      	mov	r0, r6
 8002578:	f000 fdce 	bl	8003118 <rt_dispatch>
 800257c:	e7d0      	b.n	8002520 <rt_mut_release+0x20>
 800257e:	4613      	mov	r3, r2
 8002580:	2b00      	cmp	r3, #0
 8002582:	d0d5      	beq.n	8002530 <rt_mut_release+0x30>
 8002584:	68da      	ldr	r2, [r3, #12]
 8002586:	4295      	cmp	r5, r2
 8002588:	d1f9      	bne.n	800257e <rt_mut_release+0x7e>
 800258a:	68ea      	ldr	r2, [r5, #12]
 800258c:	60da      	str	r2, [r3, #12]
 800258e:	e7cf      	b.n	8002530 <rt_mut_release+0x30>
 8002590:	6862      	ldr	r2, [r4, #4]
 8002592:	b11a      	cbz	r2, 800259c <rt_mut_release+0x9c>
 8002594:	7892      	ldrb	r2, [r2, #2]
 8002596:	4293      	cmp	r3, r2
 8002598:	bf38      	it	cc
 800259a:	4613      	movcc	r3, r2
 800259c:	68e4      	ldr	r4, [r4, #12]
 800259e:	e7ca      	b.n	8002536 <rt_mut_release+0x36>
 80025a0:	4640      	mov	r0, r8
 80025a2:	f7ff fc0f 	bl	8001dc4 <rt_put_prio>
 80025a6:	4631      	mov	r1, r6
 80025a8:	4640      	mov	r0, r8
 80025aa:	f7ff fc0b 	bl	8001dc4 <rt_put_prio>
 80025ae:	683b      	ldr	r3, [r7, #0]
 80025b0:	f883 9001 	strb.w	r9, [r3, #1]
 80025b4:	f886 9001 	strb.w	r9, [r6, #1]
 80025b8:	4620      	mov	r0, r4
 80025ba:	e7dd      	b.n	8002578 <rt_mut_release+0x78>
 80025bc:	f8d8 2004 	ldr.w	r2, [r8, #4]
 80025c0:	7892      	ldrb	r2, [r2, #2]
 80025c2:	429a      	cmp	r2, r3
 80025c4:	d9ab      	bls.n	800251e <rt_mut_release+0x1e>
 80025c6:	4640      	mov	r0, r8
 80025c8:	f7ff fbfc 	bl	8001dc4 <rt_put_prio>
 80025cc:	683b      	ldr	r3, [r7, #0]
 80025ce:	2201      	movs	r2, #1
 80025d0:	705a      	strb	r2, [r3, #1]
 80025d2:	e7f1      	b.n	80025b8 <rt_mut_release+0xb8>
 80025d4:	24ff      	movs	r4, #255	; 0xff
 80025d6:	e7a3      	b.n	8002520 <rt_mut_release+0x20>
 80025d8:	20003014 	.word	0x20003014
 80025dc:	20002fc8 	.word	0x20002fc8

080025e0 <rt_mut_wait>:
 80025e0:	8843      	ldrh	r3, [r0, #2]
 80025e2:	b570      	push	{r4, r5, r6, lr}
 80025e4:	4604      	mov	r4, r0
 80025e6:	460e      	mov	r6, r1
 80025e8:	4d13      	ldr	r5, [pc, #76]	; (8002638 <rt_mut_wait+0x58>)
 80025ea:	b943      	cbnz	r3, 80025fe <rt_mut_wait+0x1e>
 80025ec:	682a      	ldr	r2, [r5, #0]
 80025ee:	6082      	str	r2, [r0, #8]
 80025f0:	6a11      	ldr	r1, [r2, #32]
 80025f2:	60c1      	str	r1, [r0, #12]
 80025f4:	6210      	str	r0, [r2, #32]
 80025f6:	3301      	adds	r3, #1
 80025f8:	8063      	strh	r3, [r4, #2]
 80025fa:	2000      	movs	r0, #0
 80025fc:	bd70      	pop	{r4, r5, r6, pc}
 80025fe:	6880      	ldr	r0, [r0, #8]
 8002600:	682a      	ldr	r2, [r5, #0]
 8002602:	4290      	cmp	r0, r2
 8002604:	d0f7      	beq.n	80025f6 <rt_mut_wait+0x16>
 8002606:	b181      	cbz	r1, 800262a <rt_mut_wait+0x4a>
 8002608:	7893      	ldrb	r3, [r2, #2]
 800260a:	7882      	ldrb	r2, [r0, #2]
 800260c:	429a      	cmp	r2, r3
 800260e:	d202      	bcs.n	8002616 <rt_mut_wait+0x36>
 8002610:	7083      	strb	r3, [r0, #2]
 8002612:	f7ff fc7d 	bl	8001f10 <rt_resort_prio>
 8002616:	6862      	ldr	r2, [r4, #4]
 8002618:	b14a      	cbz	r2, 800262e <rt_mut_wait+0x4e>
 800261a:	6829      	ldr	r1, [r5, #0]
 800261c:	4620      	mov	r0, r4
 800261e:	f7ff fbd1 	bl	8001dc4 <rt_put_prio>
 8002622:	2109      	movs	r1, #9
 8002624:	4630      	mov	r0, r6
 8002626:	f000 fd9b 	bl	8003160 <rt_block>
 800262a:	2001      	movs	r0, #1
 800262c:	bd70      	pop	{r4, r5, r6, pc}
 800262e:	682b      	ldr	r3, [r5, #0]
 8002630:	6063      	str	r3, [r4, #4]
 8002632:	605a      	str	r2, [r3, #4]
 8002634:	609c      	str	r4, [r3, #8]
 8002636:	e7f4      	b.n	8002622 <rt_mut_wait+0x42>
 8002638:	20003014 	.word	0x20003014

0800263c <rt_evt_wait>:
 800263c:	b538      	push	{r3, r4, r5, lr}
 800263e:	4c0e      	ldr	r4, [pc, #56]	; (8002678 <rt_evt_wait+0x3c>)
 8002640:	4603      	mov	r3, r0
 8002642:	4608      	mov	r0, r1
 8002644:	6821      	ldr	r1, [r4, #0]
 8002646:	b142      	cbz	r2, 800265a <rt_evt_wait+0x1e>
 8002648:	8b0a      	ldrh	r2, [r1, #24]
 800264a:	ea33 0502 	bics.w	r5, r3, r2
 800264e:	d10a      	bne.n	8002666 <rt_evt_wait+0x2a>
 8002650:	ea22 0303 	bic.w	r3, r2, r3
 8002654:	830b      	strh	r3, [r1, #24]
 8002656:	2002      	movs	r0, #2
 8002658:	bd38      	pop	{r3, r4, r5, pc}
 800265a:	8b0a      	ldrh	r2, [r1, #24]
 800265c:	ea13 0502 	ands.w	r5, r3, r2
 8002660:	d008      	beq.n	8002674 <rt_evt_wait+0x38>
 8002662:	834d      	strh	r5, [r1, #26]
 8002664:	e7f4      	b.n	8002650 <rt_evt_wait+0x14>
 8002666:	2106      	movs	r1, #6
 8002668:	6822      	ldr	r2, [r4, #0]
 800266a:	8353      	strh	r3, [r2, #26]
 800266c:	f000 fd78 	bl	8003160 <rt_block>
 8002670:	2001      	movs	r0, #1
 8002672:	bd38      	pop	{r3, r4, r5, pc}
 8002674:	2105      	movs	r1, #5
 8002676:	e7f7      	b.n	8002668 <rt_evt_wait+0x2c>
 8002678:	20003014 	.word	0x20003014

0800267c <rt_evt_set>:
 800267c:	3901      	subs	r1, #1
 800267e:	4b14      	ldr	r3, [pc, #80]	; (80026d0 <rt_evt_set+0x54>)
 8002680:	b510      	push	{r4, lr}
 8002682:	f853 4021 	ldr.w	r4, [r3, r1, lsl #2]
 8002686:	b314      	cbz	r4, 80026ce <rt_evt_set+0x52>
 8002688:	8b23      	ldrh	r3, [r4, #24]
 800268a:	7862      	ldrb	r2, [r4, #1]
 800268c:	4318      	orrs	r0, r3
 800268e:	2a06      	cmp	r2, #6
 8002690:	8320      	strh	r0, [r4, #24]
 8002692:	8b63      	ldrh	r3, [r4, #26]
 8002694:	d114      	bne.n	80026c0 <rt_evt_set+0x44>
 8002696:	ea33 0200 	bics.w	r2, r3, r0
 800269a:	d118      	bne.n	80026ce <rt_evt_set+0x52>
 800269c:	ea20 0003 	bic.w	r0, r0, r3
 80026a0:	8320      	strh	r0, [r4, #24]
 80026a2:	4620      	mov	r0, r4
 80026a4:	f7ff fc4c 	bl	8001f40 <rt_rmv_dly>
 80026a8:	2301      	movs	r3, #1
 80026aa:	4620      	mov	r0, r4
 80026ac:	7063      	strb	r3, [r4, #1]
 80026ae:	8b62      	ldrh	r2, [r4, #26]
 80026b0:	2108      	movs	r1, #8
 80026b2:	f7ff fd6c 	bl	800218e <rt_ret_val2>
 80026b6:	4620      	mov	r0, r4
 80026b8:	e8bd 4010 	ldmia.w	sp!, {r4, lr}
 80026bc:	f000 bd2c 	b.w	8003118 <rt_dispatch>
 80026c0:	2a05      	cmp	r2, #5
 80026c2:	d104      	bne.n	80026ce <rt_evt_set+0x52>
 80026c4:	ea10 0203 	ands.w	r2, r0, r3
 80026c8:	d001      	beq.n	80026ce <rt_evt_set+0x52>
 80026ca:	8362      	strh	r2, [r4, #26]
 80026cc:	e7e6      	b.n	800269c <rt_evt_set+0x20>
 80026ce:	bd10      	pop	{r4, pc}
 80026d0:	200029b0 	.word	0x200029b0

080026d4 <isr_evt_set>:
 80026d4:	b508      	push	{r3, lr}
 80026d6:	3901      	subs	r1, #1
 80026d8:	4b06      	ldr	r3, [pc, #24]	; (80026f4 <isr_evt_set+0x20>)
 80026da:	f853 3021 	ldr.w	r3, [r3, r1, lsl #2]
 80026de:	b13b      	cbz	r3, 80026f0 <isr_evt_set+0x1c>
 80026e0:	4601      	mov	r1, r0
 80026e2:	4618      	mov	r0, r3
 80026e4:	f7ff fc40 	bl	8001f68 <rt_psq_enq>
 80026e8:	e8bd 4008 	ldmia.w	sp!, {r3, lr}
 80026ec:	f7ff bc62 	b.w	8001fb4 <rt_psh_req>
 80026f0:	bd08      	pop	{r3, pc}
 80026f2:	bf00      	nop
 80026f4:	200029b0 	.word	0x200029b0

080026f8 <rt_evt_psh>:
 80026f8:	b510      	push	{r4, lr}
 80026fa:	8b03      	ldrh	r3, [r0, #24]
 80026fc:	7842      	ldrb	r2, [r0, #1]
 80026fe:	4319      	orrs	r1, r3
 8002700:	2a06      	cmp	r2, #6
 8002702:	4604      	mov	r4, r0
 8002704:	8301      	strh	r1, [r0, #24]
 8002706:	8b43      	ldrh	r3, [r0, #26]
 8002708:	d115      	bne.n	8002736 <rt_evt_psh+0x3e>
 800270a:	ea33 0201 	bics.w	r2, r3, r1
 800270e:	d119      	bne.n	8002744 <rt_evt_psh+0x4c>
 8002710:	ea21 0103 	bic.w	r1, r1, r3
 8002714:	8321      	strh	r1, [r4, #24]
 8002716:	4620      	mov	r0, r4
 8002718:	f7ff fc12 	bl	8001f40 <rt_rmv_dly>
 800271c:	2301      	movs	r3, #1
 800271e:	4620      	mov	r0, r4
 8002720:	7063      	strb	r3, [r4, #1]
 8002722:	8b62      	ldrh	r2, [r4, #26]
 8002724:	2108      	movs	r1, #8
 8002726:	f7ff fd32 	bl	800218e <rt_ret_val2>
 800272a:	4621      	mov	r1, r4
 800272c:	4806      	ldr	r0, [pc, #24]	; (8002748 <rt_evt_psh+0x50>)
 800272e:	e8bd 4010 	ldmia.w	sp!, {r4, lr}
 8002732:	f7ff bb47 	b.w	8001dc4 <rt_put_prio>
 8002736:	2a05      	cmp	r2, #5
 8002738:	d104      	bne.n	8002744 <rt_evt_psh+0x4c>
 800273a:	ea11 0203 	ands.w	r2, r1, r3
 800273e:	d001      	beq.n	8002744 <rt_evt_psh+0x4c>
 8002740:	8342      	strh	r2, [r0, #26]
 8002742:	e7e5      	b.n	8002710 <rt_evt_psh+0x18>
 8002744:	bd10      	pop	{r4, pc}
 8002746:	bf00      	nop
 8002748:	20002fc8 	.word	0x20002fc8

0800274c <rt_init_robin>:
 800274c:	4b03      	ldr	r3, [pc, #12]	; (800275c <rt_init_robin+0x10>)
 800274e:	2200      	movs	r2, #0
 8002750:	601a      	str	r2, [r3, #0]
 8002752:	4a03      	ldr	r2, [pc, #12]	; (8002760 <rt_init_robin+0x14>)
 8002754:	6812      	ldr	r2, [r2, #0]
 8002756:	80da      	strh	r2, [r3, #6]
 8002758:	4770      	bx	lr
 800275a:	bf00      	nop
 800275c:	20003000 	.word	0x20003000
 8002760:	08008494 	.word	0x08008494

08002764 <rt_chk_robin>:
 8002764:	b508      	push	{r3, lr}
 8002766:	4b0e      	ldr	r3, [pc, #56]	; (80027a0 <rt_chk_robin+0x3c>)
 8002768:	685a      	ldr	r2, [r3, #4]
 800276a:	4b0e      	ldr	r3, [pc, #56]	; (80027a4 <rt_chk_robin+0x40>)
 800276c:	6819      	ldr	r1, [r3, #0]
 800276e:	4291      	cmp	r1, r2
 8002770:	490d      	ldr	r1, [pc, #52]	; (80027a8 <rt_chk_robin+0x44>)
 8002772:	d005      	beq.n	8002780 <rt_chk_robin+0x1c>
 8002774:	601a      	str	r2, [r3, #0]
 8002776:	88da      	ldrh	r2, [r3, #6]
 8002778:	6808      	ldr	r0, [r1, #0]
 800277a:	3a01      	subs	r2, #1
 800277c:	4402      	add	r2, r0
 800277e:	809a      	strh	r2, [r3, #4]
 8002780:	8898      	ldrh	r0, [r3, #4]
 8002782:	880a      	ldrh	r2, [r1, #0]
 8002784:	4290      	cmp	r0, r2
 8002786:	d10a      	bne.n	800279e <rt_chk_robin+0x3a>
 8002788:	2200      	movs	r2, #0
 800278a:	4805      	ldr	r0, [pc, #20]	; (80027a0 <rt_chk_robin+0x3c>)
 800278c:	601a      	str	r2, [r3, #0]
 800278e:	f7ff fb31 	bl	8001df4 <rt_get_first>
 8002792:	e8bd 4008 	ldmia.w	sp!, {r3, lr}
 8002796:	4601      	mov	r1, r0
 8002798:	4801      	ldr	r0, [pc, #4]	; (80027a0 <rt_chk_robin+0x3c>)
 800279a:	f7ff bb13 	b.w	8001dc4 <rt_put_prio>
 800279e:	bd08      	pop	{r3, pc}
 80027a0:	20002fc8 	.word	0x20002fc8
 80027a4:	20003000 	.word	0x20003000
 80027a8:	2000305c 	.word	0x2000305c

080027ac <rt_timer_insert>:
 80027ac:	4a0b      	ldr	r2, [pc, #44]	; (80027dc <rt_timer_insert+0x30>)
 80027ae:	6813      	ldr	r3, [r2, #0]
 80027b0:	b530      	push	{r4, r5, lr}
 80027b2:	2400      	movs	r4, #0
 80027b4:	b943      	cbnz	r3, 80027c8 <rt_timer_insert+0x1c>
 80027b6:	6003      	str	r3, [r0, #0]
 80027b8:	6081      	str	r1, [r0, #8]
 80027ba:	b113      	cbz	r3, 80027c2 <rt_timer_insert+0x16>
 80027bc:	689d      	ldr	r5, [r3, #8]
 80027be:	1a69      	subs	r1, r5, r1
 80027c0:	6099      	str	r1, [r3, #8]
 80027c2:	b144      	cbz	r4, 80027d6 <rt_timer_insert+0x2a>
 80027c4:	6020      	str	r0, [r4, #0]
 80027c6:	bd30      	pop	{r4, r5, pc}
 80027c8:	689d      	ldr	r5, [r3, #8]
 80027ca:	42a9      	cmp	r1, r5
 80027cc:	d3f3      	bcc.n	80027b6 <rt_timer_insert+0xa>
 80027ce:	461c      	mov	r4, r3
 80027d0:	1b49      	subs	r1, r1, r5
 80027d2:	681b      	ldr	r3, [r3, #0]
 80027d4:	e7ee      	b.n	80027b4 <rt_timer_insert+0x8>
 80027d6:	6010      	str	r0, [r2, #0]
 80027d8:	bd30      	pop	{r4, r5, pc}
 80027da:	bf00      	nop
 80027dc:	20003010 	.word	0x20003010

080027e0 <rt_ms2tick>:
 80027e0:	b1c0      	cbz	r0, 8002814 <rt_ms2tick+0x34>
 80027e2:	1c43      	adds	r3, r0, #1
 80027e4:	d011      	beq.n	800280a <rt_ms2tick+0x2a>
 80027e6:	4b0c      	ldr	r3, [pc, #48]	; (8002818 <rt_ms2tick+0x38>)
 80027e8:	4298      	cmp	r0, r3
 80027ea:	d811      	bhi.n	8002810 <rt_ms2tick+0x30>
 80027ec:	4b0b      	ldr	r3, [pc, #44]	; (800281c <rt_ms2tick+0x3c>)
 80027ee:	681b      	ldr	r3, [r3, #0]
 80027f0:	f44f 717a 	mov.w	r1, #1000	; 0x3e8
 80027f4:	1e5a      	subs	r2, r3, #1
 80027f6:	fb01 2000 	mla	r0, r1, r0, r2
 80027fa:	fbb0 f3f3 	udiv	r3, r0, r3
 80027fe:	f64f 70fe 	movw	r0, #65534	; 0xfffe
 8002802:	4283      	cmp	r3, r0
 8002804:	d806      	bhi.n	8002814 <rt_ms2tick+0x34>
 8002806:	b298      	uxth	r0, r3
 8002808:	4770      	bx	lr
 800280a:	f64f 70ff 	movw	r0, #65535	; 0xffff
 800280e:	4770      	bx	lr
 8002810:	f64f 70fe 	movw	r0, #65534	; 0xfffe
 8002814:	4770      	bx	lr
 8002816:	bf00      	nop
 8002818:	003d0900 	.word	0x003d0900
 800281c:	0800844c 	.word	0x0800844c

08002820 <rt_tid2ptcb>:
 8002820:	b138      	cbz	r0, 8002832 <rt_tid2ptcb+0x12>
 8002822:	0783      	lsls	r3, r0, #30
 8002824:	d104      	bne.n	8002830 <rt_tid2ptcb+0x10>
 8002826:	7803      	ldrb	r3, [r0, #0]
 8002828:	2b00      	cmp	r3, #0
 800282a:	bf18      	it	ne
 800282c:	2000      	movne	r0, #0
 800282e:	4770      	bx	lr
 8002830:	2000      	movs	r0, #0
 8002832:	4770      	bx	lr

08002834 <svcKernelStart>:
 8002834:	b5b0      	push	{r4, r5, r7, lr}
 8002836:	4d0e      	ldr	r5, [pc, #56]	; (8002870 <svcKernelStart+0x3c>)
 8002838:	7828      	ldrb	r0, [r5, #0]
 800283a:	af00      	add	r7, sp, #0
 800283c:	b9a8      	cbnz	r0, 800286a <svcKernelStart+0x36>
 800283e:	4c0d      	ldr	r4, [pc, #52]	; (8002874 <svcKernelStart+0x40>)
 8002840:	6823      	ldr	r3, [r4, #0]
 8002842:	f893 1024 	ldrb.w	r1, [r3, #36]	; 0x24
 8002846:	f000 fcad 	bl	80031a4 <rt_tsk_prio>
 800284a:	6823      	ldr	r3, [r4, #0]
 800284c:	78da      	ldrb	r2, [r3, #3]
 800284e:	2aff      	cmp	r2, #255	; 0xff
 8002850:	d103      	bne.n	800285a <svcKernelStart+0x26>
 8002852:	6ada      	ldr	r2, [r3, #44]	; 0x2c
 8002854:	3220      	adds	r2, #32
 8002856:	f382 8809 	msr	PSP, r2
 800285a:	6862      	ldr	r2, [r4, #4]
 800285c:	b90a      	cbnz	r2, 8002862 <svcKernelStart+0x2e>
 800285e:	e884 000c 	stmia.w	r4, {r2, r3}
 8002862:	f000 fe57 	bl	8003514 <rt_sys_start>
 8002866:	2301      	movs	r3, #1
 8002868:	702b      	strb	r3, [r5, #0]
 800286a:	2000      	movs	r0, #0
 800286c:	bdb0      	pop	{r4, r5, r7, pc}
 800286e:	bf00      	nop
 8002870:	2000300d 	.word	0x2000300d
 8002874:	20003014 	.word	0x20003014

08002878 <svcKernelRunning>:
 8002878:	4b01      	ldr	r3, [pc, #4]	; (8002880 <svcKernelRunning+0x8>)
 800287a:	7818      	ldrb	r0, [r3, #0]
 800287c:	4770      	bx	lr
 800287e:	bf00      	nop
 8002880:	2000300d 	.word	0x2000300d

08002884 <osKernelRunning>:
 8002884:	b510      	push	{r4, lr}
 8002886:	f3ef 8410 	mrs	r4, PRIMASK
 800288a:	b934      	cbnz	r4, 800289a <osKernelRunning+0x16>
 800288c:	f3ef 8405 	mrs	r4, IPSR
 8002890:	b91c      	cbnz	r4, 800289a <osKernelRunning+0x16>
 8002892:	f3ef 8414 	mrs	r4, CONTROL
 8002896:	07e4      	lsls	r4, r4, #31
 8002898:	d402      	bmi.n	80028a0 <osKernelRunning+0x1c>
 800289a:	4b03      	ldr	r3, [pc, #12]	; (80028a8 <osKernelRunning+0x24>)
 800289c:	7818      	ldrb	r0, [r3, #0]
 800289e:	bd10      	pop	{r4, pc}
 80028a0:	f8df c008 	ldr.w	r12, [pc, #8]	; 80028ac <osKernelRunning+0x28>
 80028a4:	df00      	svc	0
 80028a6:	bd10      	pop	{r4, pc}
 80028a8:	2000300d 	.word	0x2000300d
 80028ac:	08002879 	.word	0x08002879

080028b0 <osKernelStart>:
 80028b0:	b590      	push	{r4, r7, lr}
 80028b2:	b089      	sub	sp, #36	; 0x24
 80028b4:	af00      	add	r7, sp, #0
 80028b6:	f3ef 8310 	mrs	r3, PRIMASK
 80028ba:	2b00      	cmp	r3, #0
 80028bc:	d137      	bne.n	800292e <osKernelStart+0x7e>
 80028be:	f3ef 8305 	mrs	r3, IPSR
 80028c2:	2b00      	cmp	r3, #0
 80028c4:	d133      	bne.n	800292e <osKernelStart+0x7e>
 80028c6:	f7ff ffdd 	bl	8002884 <osKernelRunning>
 80028ca:	b928      	cbnz	r0, 80028d8 <osKernelStart+0x28>
 80028cc:	4c19      	ldr	r4, [pc, #100]	; (8002934 <osKernelStart+0x84>)
 80028ce:	6824      	ldr	r4, [r4, #0]
 80028d0:	b114      	cbz	r4, 80028d8 <osKernelStart+0x28>
 80028d2:	6864      	ldr	r4, [r4, #4]
 80028d4:	b104      	cbz	r4, 80028d8 <osKernelStart+0x28>
 80028d6:	47a0      	blx	r4
 80028d8:	f3ef 8414 	mrs	r4, CONTROL
 80028dc:	f004 0403 	and.w	r4, r4, #3
 80028e0:	2c02      	cmp	r4, #2
 80028e2:	d018      	beq.n	8002916 <osKernelStart+0x66>
 80028e4:	2c03      	cmp	r4, #3
 80028e6:	d01c      	beq.n	8002922 <osKernelStart+0x72>
 80028e8:	2c01      	cmp	r4, #1
 80028ea:	d01e      	beq.n	800292a <osKernelStart+0x7a>
 80028ec:	f107 0420 	add.w	r4, r7, #32
 80028f0:	f384 8809 	msr	PSP, r4
 80028f4:	4c10      	ldr	r4, [pc, #64]	; (8002938 <osKernelStart+0x88>)
 80028f6:	7824      	ldrb	r4, [r4, #0]
 80028f8:	07e4      	lsls	r4, r4, #31
 80028fa:	d510      	bpl.n	800291e <osKernelStart+0x6e>
 80028fc:	2402      	movs	r4, #2
 80028fe:	f384 8814 	msr	CONTROL, r4
 8002902:	f3bf 8f4f 	dsb	sy
 8002906:	f3bf 8f6f 	isb	sy
 800290a:	f8df c030 	ldr.w	r12, [pc, #48]	; 800293c <osKernelStart+0x8c>
 800290e:	df00      	svc	0
 8002910:	3724      	adds	r7, #36	; 0x24
 8002912:	46bd      	mov	sp, r7
 8002914:	bd90      	pop	{r4, r7, pc}
 8002916:	4c08      	ldr	r4, [pc, #32]	; (8002938 <osKernelStart+0x88>)
 8002918:	7824      	ldrb	r4, [r4, #0]
 800291a:	07e4      	lsls	r4, r4, #31
 800291c:	d4f5      	bmi.n	800290a <osKernelStart+0x5a>
 800291e:	2403      	movs	r4, #3
 8002920:	e7ed      	b.n	80028fe <osKernelStart+0x4e>
 8002922:	4c05      	ldr	r4, [pc, #20]	; (8002938 <osKernelStart+0x88>)
 8002924:	7824      	ldrb	r4, [r4, #0]
 8002926:	07e4      	lsls	r4, r4, #31
 8002928:	d5ef      	bpl.n	800290a <osKernelStart+0x5a>
 800292a:	20ff      	movs	r0, #255	; 0xff
 800292c:	e7f0      	b.n	8002910 <osKernelStart+0x60>
 800292e:	2082      	movs	r0, #130	; 0x82
 8002930:	e7ee      	b.n	8002910 <osKernelStart+0x60>
 8002932:	bf00      	nop
 8002934:	20002ffc 	.word	0x20002ffc
 8002938:	0800847a 	.word	0x0800847a
 800293c:	08002835 	.word	0x08002835

08002940 <svcThreadCreate>:
 8002940:	b570      	push	{r4, r5, r6, lr}
 8002942:	460b      	mov	r3, r1
 8002944:	4616      	mov	r6, r2
 8002946:	4602      	mov	r2, r0
 8002948:	b910      	cbnz	r0, 8002950 <svcThreadCreate+0x10>
 800294a:	2400      	movs	r4, #0
 800294c:	4620      	mov	r0, r4
 800294e:	bd70      	pop	{r4, r5, r6, pc}
 8002950:	6800      	ldr	r0, [r0, #0]
 8002952:	2800      	cmp	r0, #0
 8002954:	d0f9      	beq.n	800294a <svcThreadCreate+0xa>
 8002956:	f9b2 4004 	ldrsh.w	r4, [r2, #4]
 800295a:	1ce5      	adds	r5, r4, #3
 800295c:	b2ad      	uxth	r5, r5
 800295e:	2d06      	cmp	r5, #6
 8002960:	d8f3      	bhi.n	800294a <svcThreadCreate+0xa>
 8002962:	68d1      	ldr	r1, [r2, #12]
 8002964:	b1c1      	cbz	r1, 8002998 <svcThreadCreate+0x58>
 8002966:	6912      	ldr	r2, [r2, #16]
 8002968:	3404      	adds	r4, #4
 800296a:	ea44 2101 	orr.w	r1, r4, r1, lsl #8
 800296e:	f000 fc57 	bl	8003220 <rt_tsk_create>
 8002972:	2800      	cmp	r0, #0
 8002974:	d0e9      	beq.n	800294a <svcThreadCreate+0xa>
 8002976:	4b0a      	ldr	r3, [pc, #40]	; (80029a0 <svcThreadCreate+0x60>)
 8002978:	4a0a      	ldr	r2, [pc, #40]	; (80029a4 <svcThreadCreate+0x64>)
 800297a:	3801      	subs	r0, #1
 800297c:	f853 4020 	ldr.w	r4, [r3, r0, lsl #2]
 8002980:	6ae3      	ldr	r3, [r4, #44]	; 0x2c
 8002982:	635a      	str	r2, [r3, #52]	; 0x34
 8002984:	4b08      	ldr	r3, [pc, #32]	; (80029a8 <svcThreadCreate+0x68>)
 8002986:	681b      	ldr	r3, [r3, #0]
 8002988:	b143      	cbz	r3, 800299c <svcThreadCreate+0x5c>
 800298a:	689b      	ldr	r3, [r3, #8]
 800298c:	b133      	cbz	r3, 800299c <svcThreadCreate+0x5c>
 800298e:	4631      	mov	r1, r6
 8002990:	78e0      	ldrb	r0, [r4, #3]
 8002992:	4798      	blx	r3
 8002994:	63e0      	str	r0, [r4, #60]	; 0x3c
 8002996:	e7d9      	b.n	800294c <svcThreadCreate+0xc>
 8002998:	460a      	mov	r2, r1
 800299a:	e7e5      	b.n	8002968 <svcThreadCreate+0x28>
 800299c:	63e6      	str	r6, [r4, #60]	; 0x3c
 800299e:	e7d5      	b.n	800294c <svcThreadCreate+0xc>
 80029a0:	200029b0 	.word	0x200029b0
 80029a4:	08002c65 	.word	0x08002c65
 80029a8:	20002ffc 	.word	0x20002ffc

080029ac <svcThreadGetId>:
 80029ac:	b508      	push	{r3, lr}
 80029ae:	f000 fbf1 	bl	8003194 <rt_tsk_self>
 80029b2:	b118      	cbz	r0, 80029bc <svcThreadGetId+0x10>
 80029b4:	3801      	subs	r0, #1
 80029b6:	4b02      	ldr	r3, [pc, #8]	; (80029c0 <svcThreadGetId+0x14>)
 80029b8:	f853 0020 	ldr.w	r0, [r3, r0, lsl #2]
 80029bc:	bd08      	pop	{r3, pc}
 80029be:	bf00      	nop
 80029c0:	200029b0 	.word	0x200029b0

080029c4 <svcThreadTerminate>:
 80029c4:	b510      	push	{r4, lr}
 80029c6:	f7ff ff2b 	bl	8002820 <rt_tid2ptcb>
 80029ca:	4604      	mov	r4, r0
 80029cc:	b170      	cbz	r0, 80029ec <svcThreadTerminate+0x28>
 80029ce:	4b08      	ldr	r3, [pc, #32]	; (80029f0 <svcThreadTerminate+0x2c>)
 80029d0:	681b      	ldr	r3, [r3, #0]
 80029d2:	b11b      	cbz	r3, 80029dc <svcThreadTerminate+0x18>
 80029d4:	68db      	ldr	r3, [r3, #12]
 80029d6:	b10b      	cbz	r3, 80029dc <svcThreadTerminate+0x18>
 80029d8:	6bc0      	ldr	r0, [r0, #60]	; 0x3c
 80029da:	4798      	blx	r3
 80029dc:	78e0      	ldrb	r0, [r4, #3]
 80029de:	f000 fc75 	bl	80032cc <rt_tsk_delete>
 80029e2:	28ff      	cmp	r0, #255	; 0xff
 80029e4:	bf0c      	ite	eq
 80029e6:	2081      	moveq	r0, #129	; 0x81
 80029e8:	2000      	movne	r0, #0
 80029ea:	bd10      	pop	{r4, pc}
 80029ec:	2080      	movs	r0, #128	; 0x80
 80029ee:	bd10      	pop	{r4, pc}
 80029f0:	20002ffc 	.word	0x20002ffc

080029f4 <svcDelay>:
 80029f4:	b508      	push	{r3, lr}
 80029f6:	b128      	cbz	r0, 8002a04 <svcDelay+0x10>
 80029f8:	f7ff fef2 	bl	80027e0 <rt_ms2tick>
 80029fc:	f000 fdd0 	bl	80035a0 <rt_dly_wait>
 8002a00:	2040      	movs	r0, #64	; 0x40
 8002a02:	bd08      	pop	{r3, pc}
 8002a04:	bd08      	pop	{r3, pc}
	...

08002a08 <osDelay>:
 8002a08:	b510      	push	{r4, lr}
 8002a0a:	f3ef 8410 	mrs	r4, PRIMASK
 8002a0e:	b934      	cbnz	r4, 8002a1e <osDelay+0x16>
 8002a10:	f3ef 8405 	mrs	r4, IPSR
 8002a14:	b91c      	cbnz	r4, 8002a1e <osDelay+0x16>
 8002a16:	f8df c00c 	ldr.w	r12, [pc, #12]	; 8002a24 <osDelay+0x1c>
 8002a1a:	df00      	svc	0
 8002a1c:	bd10      	pop	{r4, pc}
 8002a1e:	2082      	movs	r0, #130	; 0x82
 8002a20:	bd10      	pop	{r4, pc}
 8002a22:	0000      	.short	0x0000
 8002a24:	080029f5 	.word	0x080029f5

08002a28 <svcTimerCall>:
 8002a28:	0783      	lsls	r3, r0, #30
 8002a2a:	d105      	bne.n	8002a38 <svcTimerCall+0x10>
 8002a2c:	b138      	cbz	r0, 8002a3e <svcTimerCall+0x16>
 8002a2e:	6943      	ldr	r3, [r0, #20]
 8002a30:	6901      	ldr	r1, [r0, #16]
 8002a32:	681b      	ldr	r3, [r3, #0]
 8002a34:	4618      	mov	r0, r3
 8002a36:	4770      	bx	lr
 8002a38:	2300      	movs	r3, #0
 8002a3a:	4619      	mov	r1, r3
 8002a3c:	e7fa      	b.n	8002a34 <svcTimerCall+0xc>
 8002a3e:	4603      	mov	r3, r0
 8002a40:	e7fb      	b.n	8002a3a <svcTimerCall+0x12>
	...

08002a44 <osTimerCall>:
 8002a44:	b510      	push	{r4, lr}
 8002a46:	4604      	mov	r4, r0
 8002a48:	4608      	mov	r0, r1
 8002a4a:	f8df c00c 	ldr.w	r12, [pc, #12]	; 8002a58 <osTimerCall+0x14>
 8002a4e:	df00      	svc	0
 8002a50:	e884 0003 	stmia.w	r4, {r0, r1}
 8002a54:	4620      	mov	r0, r4
 8002a56:	bd10      	pop	{r4, pc}
 8002a58:	08002a29 	.word	0x08002a29

08002a5c <svcSignalSet>:
 8002a5c:	b510      	push	{r4, lr}
 8002a5e:	460a      	mov	r2, r1
 8002a60:	f7ff fede 	bl	8002820 <rt_tid2ptcb>
 8002a64:	b148      	cbz	r0, 8002a7a <svcSignalSet+0x1e>
 8002a66:	0c0b      	lsrs	r3, r1, #16
 8002a68:	041b      	lsls	r3, r3, #16
 8002a6a:	b933      	cbnz	r3, 8002a7a <svcSignalSet+0x1e>
 8002a6c:	8b04      	ldrh	r4, [r0, #24]
 8002a6e:	78c1      	ldrb	r1, [r0, #3]
 8002a70:	b290      	uxth	r0, r2
 8002a72:	f7ff fe03 	bl	800267c <rt_evt_set>
 8002a76:	4620      	mov	r0, r4
 8002a78:	bd10      	pop	{r4, pc}
 8002a7a:	f04f 4400 	mov.w	r4, #2147483648	; 0x80000000
 8002a7e:	e7fa      	b.n	8002a76 <svcSignalSet+0x1a>

08002a80 <svcSignalWait>:
 8002a80:	0c03      	lsrs	r3, r0, #16
 8002a82:	041b      	lsls	r3, r3, #16
 8002a84:	e92d 41f0 	stmdb	sp!, {r4, r5, r6, r7, r8, lr}
 8002a88:	4680      	mov	r8, r0
 8002a8a:	460c      	mov	r4, r1
 8002a8c:	bb7b      	cbnz	r3, 8002aee <svcSignalWait+0x6e>
 8002a8e:	4608      	mov	r0, r1
 8002a90:	f1b8 0f00 	cmp.w	r8, #0
 8002a94:	d00b      	beq.n	8002aae <svcSignalWait+0x2e>
 8002a96:	f7ff fea3 	bl	80027e0 <rt_ms2tick>
 8002a9a:	2201      	movs	r2, #1
 8002a9c:	4601      	mov	r1, r0
 8002a9e:	fa1f f088 	uxth.w	r0, r8
 8002aa2:	f7ff fdcb 	bl	800263c <rt_evt_wait>
 8002aa6:	2802      	cmp	r0, #2
 8002aa8:	d110      	bne.n	8002acc <svcSignalWait+0x4c>
 8002aaa:	2408      	movs	r4, #8
 8002aac:	e010      	b.n	8002ad0 <svcSignalWait+0x50>
 8002aae:	f7ff fe97 	bl	80027e0 <rt_ms2tick>
 8002ab2:	4642      	mov	r2, r8
 8002ab4:	4601      	mov	r1, r0
 8002ab6:	f64f 70ff 	movw	r0, #65535	; 0xffff
 8002aba:	f7ff fdbf 	bl	800263c <rt_evt_wait>
 8002abe:	2802      	cmp	r0, #2
 8002ac0:	d104      	bne.n	8002acc <svcSignalWait+0x4c>
 8002ac2:	4b0d      	ldr	r3, [pc, #52]	; (8002af8 <svcSignalWait+0x78>)
 8002ac4:	681b      	ldr	r3, [r3, #0]
 8002ac6:	f8b3 801a 	ldrh.w	r8, [r3, #26]
 8002aca:	e7ee      	b.n	8002aaa <svcSignalWait+0x2a>
 8002acc:	b95c      	cbnz	r4, 8002ae6 <svcSignalWait+0x66>
 8002ace:	46a0      	mov	r8, r4
 8002ad0:	2000      	movs	r0, #0
 8002ad2:	4601      	mov	r1, r0
 8002ad4:	4645      	mov	r5, r8
 8002ad6:	460e      	mov	r6, r1
 8002ad8:	460f      	mov	r7, r1
 8002ada:	4620      	mov	r0, r4
 8002adc:	4629      	mov	r1, r5
 8002ade:	4632      	mov	r2, r6
 8002ae0:	463b      	mov	r3, r7
 8002ae2:	e8bd 81f0 	ldmia.w	sp!, {r4, r5, r6, r7, r8, pc}
 8002ae6:	f04f 0800 	mov.w	r8, #0
 8002aea:	2440      	movs	r4, #64	; 0x40
 8002aec:	e7f0      	b.n	8002ad0 <svcSignalWait+0x50>
 8002aee:	2500      	movs	r5, #0
 8002af0:	2486      	movs	r4, #134	; 0x86
 8002af2:	462e      	mov	r6, r5
 8002af4:	462f      	mov	r7, r5
 8002af6:	e7f0      	b.n	8002ada <svcSignalWait+0x5a>
 8002af8:	20003014 	.word	0x20003014

08002afc <isrSignalSet>:
 8002afc:	b510      	push	{r4, lr}
 8002afe:	460a      	mov	r2, r1
 8002b00:	f7ff fe8e 	bl	8002820 <rt_tid2ptcb>
 8002b04:	b148      	cbz	r0, 8002b1a <isrSignalSet+0x1e>
 8002b06:	0c0b      	lsrs	r3, r1, #16
 8002b08:	041b      	lsls	r3, r3, #16
 8002b0a:	b933      	cbnz	r3, 8002b1a <isrSignalSet+0x1e>
 8002b0c:	8b04      	ldrh	r4, [r0, #24]
 8002b0e:	78c1      	ldrb	r1, [r0, #3]
 8002b10:	b290      	uxth	r0, r2
 8002b12:	f7ff fddf 	bl	80026d4 <isr_evt_set>
 8002b16:	4620      	mov	r0, r4
 8002b18:	bd10      	pop	{r4, pc}
 8002b1a:	f04f 4400 	mov.w	r4, #2147483648	; 0x80000000
 8002b1e:	e7fa      	b.n	8002b16 <isrSignalSet+0x1a>

08002b20 <osSignalSet>:
 8002b20:	b570      	push	{r4, r5, r6, lr}
 8002b22:	4604      	mov	r4, r0
 8002b24:	460d      	mov	r5, r1
 8002b26:	f3ef 8610 	mrs	r6, PRIMASK
 8002b2a:	b916      	cbnz	r6, 8002b32 <osSignalSet+0x12>
 8002b2c:	f3ef 8605 	mrs	r6, IPSR
 8002b30:	b12e      	cbz	r6, 8002b3e <osSignalSet+0x1e>
 8002b32:	4629      	mov	r1, r5
 8002b34:	4620      	mov	r0, r4
 8002b36:	e8bd 4070 	ldmia.w	sp!, {r4, r5, r6, lr}
 8002b3a:	f7ff bfdf 	b.w	8002afc <isrSignalSet>
 8002b3e:	f8df c008 	ldr.w	r12, [pc, #8]	; 8002b48 <osSignalSet+0x28>
 8002b42:	df00      	svc	0
 8002b44:	bd70      	pop	{r4, r5, r6, pc}
 8002b46:	0000      	.short	0x0000
 8002b48:	08002a5d 	.word	0x08002a5d

08002b4c <osSignalWait>:
 8002b4c:	b530      	push	{r4, r5, lr}
 8002b4e:	4604      	mov	r4, r0
 8002b50:	4608      	mov	r0, r1
 8002b52:	4611      	mov	r1, r2
 8002b54:	f3ef 8510 	mrs	r5, PRIMASK
 8002b58:	b915      	cbnz	r5, 8002b60 <osSignalWait+0x14>
 8002b5a:	f3ef 8505 	mrs	r5, IPSR
 8002b5e:	b11d      	cbz	r5, 8002b68 <osSignalWait+0x1c>
 8002b60:	2382      	movs	r3, #130	; 0x82
 8002b62:	6023      	str	r3, [r4, #0]
 8002b64:	4620      	mov	r0, r4
 8002b66:	bd30      	pop	{r4, r5, pc}
 8002b68:	f8df c008 	ldr.w	r12, [pc, #8]	; 8002b74 <osSignalWait+0x28>
 8002b6c:	df00      	svc	0
 8002b6e:	e884 0007 	stmia.w	r4, {r0, r1, r2}
 8002b72:	e7f7      	b.n	8002b64 <osSignalWait+0x18>
 8002b74:	08002a81 	.word	0x08002a81

08002b78 <svcMutexCreate>:
 8002b78:	b510      	push	{r4, lr}
 8002b7a:	b148      	cbz	r0, 8002b90 <svcMutexCreate+0x18>
 8002b7c:	6804      	ldr	r4, [r0, #0]
 8002b7e:	b124      	cbz	r4, 8002b8a <svcMutexCreate+0x12>
 8002b80:	7823      	ldrb	r3, [r4, #0]
 8002b82:	b923      	cbnz	r3, 8002b8e <svcMutexCreate+0x16>
 8002b84:	4620      	mov	r0, r4
 8002b86:	f7ff fc5d 	bl	8002444 <rt_mut_init>
 8002b8a:	4620      	mov	r0, r4
 8002b8c:	bd10      	pop	{r4, pc}
 8002b8e:	2000      	movs	r0, #0
 8002b90:	bd10      	pop	{r4, pc}

08002b92 <svcMutexWait>:
 8002b92:	b570      	push	{r4, r5, r6, lr}
 8002b94:	f010 0403 	ands.w	r4, r0, #3
 8002b98:	4605      	mov	r5, r0
 8002b9a:	460e      	mov	r6, r1
 8002b9c:	d111      	bne.n	8002bc2 <svcMutexWait+0x30>
 8002b9e:	b180      	cbz	r0, 8002bc2 <svcMutexWait+0x30>
 8002ba0:	7803      	ldrb	r3, [r0, #0]
 8002ba2:	2b03      	cmp	r3, #3
 8002ba4:	d10d      	bne.n	8002bc2 <svcMutexWait+0x30>
 8002ba6:	4608      	mov	r0, r1
 8002ba8:	f7ff fe1a 	bl	80027e0 <rt_ms2tick>
 8002bac:	4601      	mov	r1, r0
 8002bae:	4628      	mov	r0, r5
 8002bb0:	f7ff fd16 	bl	80025e0 <rt_mut_wait>
 8002bb4:	2801      	cmp	r0, #1
 8002bb6:	d106      	bne.n	8002bc6 <svcMutexWait+0x34>
 8002bb8:	2e00      	cmp	r6, #0
 8002bba:	bf14      	ite	ne
 8002bbc:	20c1      	movne	r0, #193	; 0xc1
 8002bbe:	2081      	moveq	r0, #129	; 0x81
 8002bc0:	bd70      	pop	{r4, r5, r6, pc}
 8002bc2:	2080      	movs	r0, #128	; 0x80
 8002bc4:	bd70      	pop	{r4, r5, r6, pc}
 8002bc6:	4620      	mov	r0, r4
 8002bc8:	bd70      	pop	{r4, r5, r6, pc}

08002bca <svcMutexRelease>:
 8002bca:	0782      	lsls	r2, r0, #30
 8002bcc:	b508      	push	{r3, lr}
 8002bce:	d10a      	bne.n	8002be6 <svcMutexRelease+0x1c>
 8002bd0:	b148      	cbz	r0, 8002be6 <svcMutexRelease+0x1c>
 8002bd2:	7803      	ldrb	r3, [r0, #0]
 8002bd4:	2b03      	cmp	r3, #3
 8002bd6:	d106      	bne.n	8002be6 <svcMutexRelease+0x1c>
 8002bd8:	f7ff fc92 	bl	8002500 <rt_mut_release>
 8002bdc:	28ff      	cmp	r0, #255	; 0xff
 8002bde:	bf0c      	ite	eq
 8002be0:	2081      	moveq	r0, #129	; 0x81
 8002be2:	2000      	movne	r0, #0
 8002be4:	bd08      	pop	{r3, pc}
 8002be6:	2080      	movs	r0, #128	; 0x80
 8002be8:	bd08      	pop	{r3, pc}

08002bea <svcMutexDelete>:
 8002bea:	b510      	push	{r4, lr}
 8002bec:	f010 0403 	ands.w	r4, r0, #3
 8002bf0:	d107      	bne.n	8002c02 <svcMutexDelete+0x18>
 8002bf2:	b130      	cbz	r0, 8002c02 <svcMutexDelete+0x18>
 8002bf4:	7803      	ldrb	r3, [r0, #0]
 8002bf6:	2b03      	cmp	r3, #3
 8002bf8:	d103      	bne.n	8002c02 <svcMutexDelete+0x18>
 8002bfa:	f7ff fc2b 	bl	8002454 <rt_mut_delete>
 8002bfe:	4620      	mov	r0, r4
 8002c00:	bd10      	pop	{r4, pc}
 8002c02:	2080      	movs	r0, #128	; 0x80
 8002c04:	bd10      	pop	{r4, pc}
	...

08002c08 <osMutexCreate>:
 8002c08:	b570      	push	{r4, r5, r6, lr}
 8002c0a:	4605      	mov	r5, r0
 8002c0c:	f3ef 8410 	mrs	r4, PRIMASK
 8002c10:	b994      	cbnz	r4, 8002c38 <osMutexCreate+0x30>
 8002c12:	f3ef 8605 	mrs	r6, IPSR
 8002c16:	b97e      	cbnz	r6, 8002c38 <osMutexCreate+0x30>
 8002c18:	f3ef 8414 	mrs	r4, CONTROL
 8002c1c:	07e4      	lsls	r4, r4, #31
 8002c1e:	d406      	bmi.n	8002c2e <osMutexCreate+0x26>
 8002c20:	4c06      	ldr	r4, [pc, #24]	; (8002c3c <osMutexCreate+0x34>)
 8002c22:	7824      	ldrb	r4, [r4, #0]
 8002c24:	b91c      	cbnz	r4, 8002c2e <osMutexCreate+0x26>
 8002c26:	e8bd 4070 	ldmia.w	sp!, {r4, r5, r6, lr}
 8002c2a:	f7ff bfa5 	b.w	8002b78 <svcMutexCreate>
 8002c2e:	4628      	mov	r0, r5
 8002c30:	f8df c00c 	ldr.w	r12, [pc, #12]	; 8002c40 <osMutexCreate+0x38>
 8002c34:	df00      	svc	0
 8002c36:	bd70      	pop	{r4, r5, r6, pc}
 8002c38:	2000      	movs	r0, #0
 8002c3a:	bd70      	pop	{r4, r5, r6, pc}
 8002c3c:	2000300d 	.word	0x2000300d
 8002c40:	08002b79 	.word	0x08002b79

08002c44 <osMutexWait>:
 8002c44:	b510      	push	{r4, lr}
 8002c46:	f3ef 8410 	mrs	r4, PRIMASK
 8002c4a:	b934      	cbnz	r4, 8002c5a <osMutexWait+0x16>
 8002c4c:	f3ef 8405 	mrs	r4, IPSR
 8002c50:	b91c      	cbnz	r4, 8002c5a <osMutexWait+0x16>
 8002c52:	f8df c00c 	ldr.w	r12, [pc, #12]	; 8002c60 <osMutexWait+0x1c>
 8002c56:	df00      	svc	0
 8002c58:	bd10      	pop	{r4, pc}
 8002c5a:	2082      	movs	r0, #130	; 0x82
 8002c5c:	bd10      	pop	{r4, pc}
 8002c5e:	0000      	.short	0x0000
 8002c60:	08002b93 	.word	0x08002b93

08002c64 <osThreadExit>:
 8002c64:	4808      	ldr	r0, [pc, #32]	; (8002c88 <osThreadExit+0x24>)
 8002c66:	b508      	push	{r3, lr}
 8002c68:	f04f 31ff 	mov.w	r1, #4294967295	; 0xffffffff
 8002c6c:	6800      	ldr	r0, [r0, #0]
 8002c6e:	f7ff ffe9 	bl	8002c44 <osMutexWait>
 8002c72:	f8df c018 	ldr.w	r12, [pc, #24]	; 8002c8c <osThreadExit+0x28>
 8002c76:	df00      	svc	0
 8002c78:	4604      	mov	r4, r0
 8002c7a:	f7ff f863 	bl	8001d44 <sysThreadTerminate>
 8002c7e:	4620      	mov	r0, r4
 8002c80:	f8df c00c 	ldr.w	r12, [pc, #12]	; 8002c90 <osThreadExit+0x2c>
 8002c84:	df00      	svc	0
 8002c86:	e7fe      	b.n	8002c86 <osThreadExit+0x22>
 8002c88:	20003008 	.word	0x20003008
 8002c8c:	080029ad 	.word	0x080029ad
 8002c90:	080029c5 	.word	0x080029c5

08002c94 <osMutexRelease>:
 8002c94:	b510      	push	{r4, lr}
 8002c96:	f3ef 8410 	mrs	r4, PRIMASK
 8002c9a:	b934      	cbnz	r4, 8002caa <osMutexRelease+0x16>
 8002c9c:	f3ef 8405 	mrs	r4, IPSR
 8002ca0:	b91c      	cbnz	r4, 8002caa <osMutexRelease+0x16>
 8002ca2:	f8df c00c 	ldr.w	r12, [pc, #12]	; 8002cb0 <osMutexRelease+0x1c>
 8002ca6:	df00      	svc	0
 8002ca8:	bd10      	pop	{r4, pc}
 8002caa:	2082      	movs	r0, #130	; 0x82
 8002cac:	bd10      	pop	{r4, pc}
 8002cae:	0000      	.short	0x0000
 8002cb0:	08002bcb 	.word	0x08002bcb

08002cb4 <osThreadContextCreate>:
 8002cb4:	e92d 41f0 	stmdb	sp!, {r4, r5, r6, r7, r8, lr}
 8002cb8:	4680      	mov	r8, r0
 8002cba:	460f      	mov	r7, r1
 8002cbc:	4616      	mov	r6, r2
 8002cbe:	f3ef 8410 	mrs	r4, PRIMASK
 8002cc2:	bb04      	cbnz	r4, 8002d06 <osThreadContextCreate+0x52>
 8002cc4:	f3ef 8305 	mrs	r3, IPSR
 8002cc8:	b9d3      	cbnz	r3, 8002d00 <osThreadContextCreate+0x4c>
 8002cca:	f3ef 8314 	mrs	r3, CONTROL
 8002cce:	07db      	lsls	r3, r3, #31
 8002cd0:	d406      	bmi.n	8002ce0 <osThreadContextCreate+0x2c>
 8002cd2:	4b0e      	ldr	r3, [pc, #56]	; (8002d0c <osThreadContextCreate+0x58>)
 8002cd4:	781b      	ldrb	r3, [r3, #0]
 8002cd6:	b91b      	cbnz	r3, 8002ce0 <osThreadContextCreate+0x2c>
 8002cd8:	e8bd 41f0 	ldmia.w	sp!, {r4, r5, r6, r7, r8, lr}
 8002cdc:	f7ff be30 	b.w	8002940 <svcThreadCreate>
 8002ce0:	4d0b      	ldr	r5, [pc, #44]	; (8002d10 <osThreadContextCreate+0x5c>)
 8002ce2:	f04f 31ff 	mov.w	r1, #4294967295	; 0xffffffff
 8002ce6:	6828      	ldr	r0, [r5, #0]
 8002ce8:	f7ff ffac 	bl	8002c44 <osMutexWait>
 8002cec:	4640      	mov	r0, r8
 8002cee:	4639      	mov	r1, r7
 8002cf0:	4632      	mov	r2, r6
 8002cf2:	f8df c020 	ldr.w	r12, [pc, #32]	; 8002d14 <osThreadContextCreate+0x60>
 8002cf6:	df00      	svc	0
 8002cf8:	4604      	mov	r4, r0
 8002cfa:	6828      	ldr	r0, [r5, #0]
 8002cfc:	f7ff ffca 	bl	8002c94 <osMutexRelease>
 8002d00:	4620      	mov	r0, r4
 8002d02:	e8bd 81f0 	ldmia.w	sp!, {r4, r5, r6, r7, r8, pc}
 8002d06:	2400      	movs	r4, #0
 8002d08:	e7fa      	b.n	8002d00 <osThreadContextCreate+0x4c>
 8002d0a:	bf00      	nop
 8002d0c:	2000300d 	.word	0x2000300d
 8002d10:	20003008 	.word	0x20003008
 8002d14:	08002941 	.word	0x08002941

08002d18 <osThreadCreate>:
 8002d18:	2200      	movs	r2, #0
 8002d1a:	f7ff bfcb 	b.w	8002cb4 <osThreadContextCreate>
	...

08002d20 <osThreadTerminate>:
 8002d20:	b538      	push	{r3, r4, r5, lr}
 8002d22:	4604      	mov	r4, r0
 8002d24:	f3ef 8310 	mrs	r3, PRIMASK
 8002d28:	b9ab      	cbnz	r3, 8002d56 <osThreadTerminate+0x36>
 8002d2a:	f3ef 8305 	mrs	r3, IPSR
 8002d2e:	b993      	cbnz	r3, 8002d56 <osThreadTerminate+0x36>
 8002d30:	4d0a      	ldr	r5, [pc, #40]	; (8002d5c <osThreadTerminate+0x3c>)
 8002d32:	f04f 31ff 	mov.w	r1, #4294967295	; 0xffffffff
 8002d36:	6828      	ldr	r0, [r5, #0]
 8002d38:	f7ff ff84 	bl	8002c44 <osMutexWait>
 8002d3c:	4620      	mov	r0, r4
 8002d3e:	f7ff f801 	bl	8001d44 <sysThreadTerminate>
 8002d42:	4620      	mov	r0, r4
 8002d44:	f8df c018 	ldr.w	r12, [pc, #24]	; 8002d60 <osThreadTerminate+0x40>
 8002d48:	df00      	svc	0
 8002d4a:	4604      	mov	r4, r0
 8002d4c:	6828      	ldr	r0, [r5, #0]
 8002d4e:	f7ff ffa1 	bl	8002c94 <osMutexRelease>
 8002d52:	4620      	mov	r0, r4
 8002d54:	bd38      	pop	{r3, r4, r5, pc}
 8002d56:	2482      	movs	r4, #130	; 0x82
 8002d58:	e7fb      	b.n	8002d52 <osThreadTerminate+0x32>
 8002d5a:	bf00      	nop
 8002d5c:	20003008 	.word	0x20003008
 8002d60:	080029c5 	.word	0x080029c5

08002d64 <osMutexDelete>:
 8002d64:	b510      	push	{r4, lr}
 8002d66:	f3ef 8410 	mrs	r4, PRIMASK
 8002d6a:	b934      	cbnz	r4, 8002d7a <osMutexDelete+0x16>
 8002d6c:	f3ef 8405 	mrs	r4, IPSR
 8002d70:	b91c      	cbnz	r4, 8002d7a <osMutexDelete+0x16>
 8002d72:	f8df c00c 	ldr.w	r12, [pc, #12]	; 8002d80 <osMutexDelete+0x1c>
 8002d76:	df00      	svc	0
 8002d78:	bd10      	pop	{r4, pc}
 8002d7a:	2082      	movs	r0, #130	; 0x82
 8002d7c:	bd10      	pop	{r4, pc}
 8002d7e:	0000      	.short	0x0000
 8002d80:	08002beb 	.word	0x08002beb

08002d84 <svcSemaphoreCreate>:
 8002d84:	b510      	push	{r4, lr}
 8002d86:	b168      	cbz	r0, 8002da4 <svcSemaphoreCreate+0x20>
 8002d88:	6804      	ldr	r4, [r0, #0]
 8002d8a:	b154      	cbz	r4, 8002da2 <svcSemaphoreCreate+0x1e>
 8002d8c:	7820      	ldrb	r0, [r4, #0]
 8002d8e:	b940      	cbnz	r0, 8002da2 <svcSemaphoreCreate+0x1e>
 8002d90:	f5b1 3f80 	cmp.w	r1, #65536	; 0x10000
 8002d94:	da06      	bge.n	8002da4 <svcSemaphoreCreate+0x20>
 8002d96:	4620      	mov	r0, r4
 8002d98:	b289      	uxth	r1, r1
 8002d9a:	f000 fc04 	bl	80035a6 <rt_sem_init>
 8002d9e:	4620      	mov	r0, r4
 8002da0:	bd10      	pop	{r4, pc}
 8002da2:	2000      	movs	r0, #0
 8002da4:	bd10      	pop	{r4, pc}

08002da6 <svcSemaphoreRelease>:
 8002da6:	b510      	push	{r4, lr}
 8002da8:	f010 0403 	ands.w	r4, r0, #3
 8002dac:	d10c      	bne.n	8002dc8 <svcSemaphoreRelease+0x22>
 8002dae:	b158      	cbz	r0, 8002dc8 <svcSemaphoreRelease+0x22>
 8002db0:	7802      	ldrb	r2, [r0, #0]
 8002db2:	2a02      	cmp	r2, #2
 8002db4:	d108      	bne.n	8002dc8 <svcSemaphoreRelease+0x22>
 8002db6:	8842      	ldrh	r2, [r0, #2]
 8002db8:	f64f 73ff 	movw	r3, #65535	; 0xffff
 8002dbc:	429a      	cmp	r2, r3
 8002dbe:	d005      	beq.n	8002dcc <svcSemaphoreRelease+0x26>
 8002dc0:	f000 fc26 	bl	8003610 <rt_sem_send>
 8002dc4:	4620      	mov	r0, r4
 8002dc6:	bd10      	pop	{r4, pc}
 8002dc8:	2080      	movs	r0, #128	; 0x80
 8002dca:	bd10      	pop	{r4, pc}
 8002dcc:	2081      	movs	r0, #129	; 0x81
 8002dce:	bd10      	pop	{r4, pc}

08002dd0 <svcSemaphoreDelete>:
 8002dd0:	b510      	push	{r4, lr}
 8002dd2:	f010 0403 	ands.w	r4, r0, #3
 8002dd6:	d107      	bne.n	8002de8 <svcSemaphoreDelete+0x18>
 8002dd8:	b130      	cbz	r0, 8002de8 <svcSemaphoreDelete+0x18>
 8002dda:	7803      	ldrb	r3, [r0, #0]
 8002ddc:	2b02      	cmp	r3, #2
 8002dde:	d103      	bne.n	8002de8 <svcSemaphoreDelete+0x18>
 8002de0:	f000 fbe8 	bl	80035b4 <rt_sem_delete>
 8002de4:	4620      	mov	r0, r4
 8002de6:	bd10      	pop	{r4, pc}
 8002de8:	2080      	movs	r0, #128	; 0x80
 8002dea:	bd10      	pop	{r4, pc}

08002dec <isrSemaphoreRelease>:
 8002dec:	b510      	push	{r4, lr}
 8002dee:	f010 0403 	ands.w	r4, r0, #3
 8002df2:	d10c      	bne.n	8002e0e <isrSemaphoreRelease+0x22>
 8002df4:	b158      	cbz	r0, 8002e0e <isrSemaphoreRelease+0x22>
 8002df6:	7802      	ldrb	r2, [r0, #0]
 8002df8:	2a02      	cmp	r2, #2
 8002dfa:	d108      	bne.n	8002e0e <isrSemaphoreRelease+0x22>
 8002dfc:	8842      	ldrh	r2, [r0, #2]
 8002dfe:	f64f 73ff 	movw	r3, #65535	; 0xffff
 8002e02:	429a      	cmp	r2, r3
 8002e04:	d005      	beq.n	8002e12 <isrSemaphoreRelease+0x26>
 8002e06:	f000 fc18 	bl	800363a <isr_sem_send>
 8002e0a:	4620      	mov	r0, r4
 8002e0c:	bd10      	pop	{r4, pc}
 8002e0e:	2080      	movs	r0, #128	; 0x80
 8002e10:	bd10      	pop	{r4, pc}
 8002e12:	2081      	movs	r0, #129	; 0x81
 8002e14:	bd10      	pop	{r4, pc}
	...

08002e18 <osSemaphoreCreate>:
 8002e18:	b5f0      	push	{r4, r5, r6, r7, lr}
 8002e1a:	4606      	mov	r6, r0
 8002e1c:	460d      	mov	r5, r1
 8002e1e:	f3ef 8410 	mrs	r4, PRIMASK
 8002e22:	b99c      	cbnz	r4, 8002e4c <osSemaphoreCreate+0x34>
 8002e24:	f3ef 8705 	mrs	r7, IPSR
 8002e28:	b987      	cbnz	r7, 8002e4c <osSemaphoreCreate+0x34>
 8002e2a:	f3ef 8414 	mrs	r4, CONTROL
 8002e2e:	07e4      	lsls	r4, r4, #31
 8002e30:	d406      	bmi.n	8002e40 <osSemaphoreCreate+0x28>
 8002e32:	4c07      	ldr	r4, [pc, #28]	; (8002e50 <osSemaphoreCreate+0x38>)
 8002e34:	7824      	ldrb	r4, [r4, #0]
 8002e36:	b91c      	cbnz	r4, 8002e40 <osSemaphoreCreate+0x28>
 8002e38:	e8bd 40f0 	ldmia.w	sp!, {r4, r5, r6, r7, lr}
 8002e3c:	f7ff bfa2 	b.w	8002d84 <svcSemaphoreCreate>
 8002e40:	4630      	mov	r0, r6
 8002e42:	4629      	mov	r1, r5
 8002e44:	f8df c00c 	ldr.w	r12, [pc, #12]	; 8002e54 <osSemaphoreCreate+0x3c>
 8002e48:	df00      	svc	0
 8002e4a:	bdf0      	pop	{r4, r5, r6, r7, pc}
 8002e4c:	2000      	movs	r0, #0
 8002e4e:	bdf0      	pop	{r4, r5, r6, r7, pc}
 8002e50:	2000300d 	.word	0x2000300d
 8002e54:	08002d85 	.word	0x08002d85

08002e58 <osSemaphoreRelease>:
 8002e58:	b530      	push	{r4, r5, lr}
 8002e5a:	4604      	mov	r4, r0
 8002e5c:	f3ef 8510 	mrs	r5, PRIMASK
 8002e60:	b915      	cbnz	r5, 8002e68 <osSemaphoreRelease+0x10>
 8002e62:	f3ef 8505 	mrs	r5, IPSR
 8002e66:	b125      	cbz	r5, 8002e72 <osSemaphoreRelease+0x1a>
 8002e68:	4620      	mov	r0, r4
 8002e6a:	e8bd 4030 	ldmia.w	sp!, {r4, r5, lr}
 8002e6e:	f7ff bfbd 	b.w	8002dec <isrSemaphoreRelease>
 8002e72:	f8df c008 	ldr.w	r12, [pc, #8]	; 8002e7c <osSemaphoreRelease+0x24>
 8002e76:	df00      	svc	0
 8002e78:	bd30      	pop	{r4, r5, pc}
 8002e7a:	0000      	.short	0x0000
 8002e7c:	08002da7 	.word	0x08002da7

08002e80 <osSemaphoreDelete>:
 8002e80:	b510      	push	{r4, lr}
 8002e82:	f3ef 8410 	mrs	r4, PRIMASK
 8002e86:	b934      	cbnz	r4, 8002e96 <osSemaphoreDelete+0x16>
 8002e88:	f3ef 8405 	mrs	r4, IPSR
 8002e8c:	b91c      	cbnz	r4, 8002e96 <osSemaphoreDelete+0x16>
 8002e8e:	f8df c00c 	ldr.w	r12, [pc, #12]	; 8002e9c <osSemaphoreDelete+0x1c>
 8002e92:	df00      	svc	0
 8002e94:	bd10      	pop	{r4, pc}
 8002e96:	2082      	movs	r0, #130	; 0x82
 8002e98:	bd10      	pop	{r4, pc}
 8002e9a:	0000      	.short	0x0000
 8002e9c:	08002dd1 	.word	0x08002dd1

08002ea0 <svcMessageCreate>:
 8002ea0:	b510      	push	{r4, lr}
 8002ea2:	4604      	mov	r4, r0
 8002ea4:	b160      	cbz	r0, 8002ec0 <svcMessageCreate+0x20>
 8002ea6:	6801      	ldr	r1, [r0, #0]
 8002ea8:	b151      	cbz	r1, 8002ec0 <svcMessageCreate+0x20>
 8002eaa:	6840      	ldr	r0, [r0, #4]
 8002eac:	b148      	cbz	r0, 8002ec2 <svcMessageCreate+0x22>
 8002eae:	7803      	ldrb	r3, [r0, #0]
 8002eb0:	b933      	cbnz	r3, 8002ec0 <svcMessageCreate+0x20>
 8002eb2:	3104      	adds	r1, #4
 8002eb4:	0089      	lsls	r1, r1, #2
 8002eb6:	b289      	uxth	r1, r1
 8002eb8:	f7ff f9ba 	bl	8002230 <rt_mbx_init>
 8002ebc:	6860      	ldr	r0, [r4, #4]
 8002ebe:	bd10      	pop	{r4, pc}
 8002ec0:	2000      	movs	r0, #0
 8002ec2:	bd10      	pop	{r4, pc}

08002ec4 <svcKernelInitialize>:
 8002ec4:	b538      	push	{r3, r4, r5, lr}
 8002ec6:	4c11      	ldr	r4, [pc, #68]	; (8002f0c <svcKernelInitialize+0x48>)
 8002ec8:	7823      	ldrb	r3, [r4, #0]
 8002eca:	b90b      	cbnz	r3, 8002ed0 <svcKernelInitialize+0xc>
 8002ecc:	f000 faa8 	bl	8003420 <rt_sys_init>
 8002ed0:	4b0f      	ldr	r3, [pc, #60]	; (8002f10 <svcKernelInitialize+0x4c>)
 8002ed2:	7825      	ldrb	r5, [r4, #0]
 8002ed4:	681b      	ldr	r3, [r3, #0]
 8002ed6:	22ff      	movs	r2, #255	; 0xff
 8002ed8:	709a      	strb	r2, [r3, #2]
 8002eda:	b98d      	cbnz	r5, 8002f00 <svcKernelInitialize+0x3c>
 8002edc:	4629      	mov	r1, r5
 8002ede:	480d      	ldr	r0, [pc, #52]	; (8002f14 <svcKernelInitialize+0x50>)
 8002ee0:	f7ff ffde 	bl	8002ea0 <svcMessageCreate>
 8002ee4:	4b0c      	ldr	r3, [pc, #48]	; (8002f18 <svcKernelInitialize+0x54>)
 8002ee6:	462a      	mov	r2, r5
 8002ee8:	6018      	str	r0, [r3, #0]
 8002eea:	4629      	mov	r1, r5
 8002eec:	480b      	ldr	r0, [pc, #44]	; (8002f1c <svcKernelInitialize+0x58>)
 8002eee:	f7ff fd27 	bl	8002940 <svcThreadCreate>
 8002ef2:	4b0b      	ldr	r3, [pc, #44]	; (8002f20 <svcKernelInitialize+0x5c>)
 8002ef4:	6018      	str	r0, [r3, #0]
 8002ef6:	480b      	ldr	r0, [pc, #44]	; (8002f24 <svcKernelInitialize+0x60>)
 8002ef8:	f7ff fe86 	bl	8002c08 <osMutexCreate>
 8002efc:	4b0a      	ldr	r3, [pc, #40]	; (8002f28 <svcKernelInitialize+0x64>)
 8002efe:	6018      	str	r0, [r3, #0]
 8002f00:	2301      	movs	r3, #1
 8002f02:	7023      	strb	r3, [r4, #0]
 8002f04:	4b09      	ldr	r3, [pc, #36]	; (8002f2c <svcKernelInitialize+0x68>)
 8002f06:	2000      	movs	r0, #0
 8002f08:	7018      	strb	r0, [r3, #0]
 8002f0a:	bd38      	pop	{r3, r4, r5, pc}
 8002f0c:	2000300c 	.word	0x2000300c
 8002f10:	20003014 	.word	0x20003014
 8002f14:	08008480 	.word	0x08008480
 8002f18:	2000268c 	.word	0x2000268c
 8002f1c:	0800849c 	.word	0x0800849c
 8002f20:	20002684 	.word	0x20002684
 8002f24:	080084b4 	.word	0x080084b4
 8002f28:	20003008 	.word	0x20003008
 8002f2c:	2000300d 	.word	0x2000300d

08002f30 <osKernelInitialize>:
 8002f30:	b510      	push	{r4, lr}
 8002f32:	f3ef 8410 	mrs	r4, PRIMASK
 8002f36:	b974      	cbnz	r4, 8002f56 <osKernelInitialize+0x26>
 8002f38:	f3ef 8405 	mrs	r4, IPSR
 8002f3c:	b95c      	cbnz	r4, 8002f56 <osKernelInitialize+0x26>
 8002f3e:	f3ef 8414 	mrs	r4, CONTROL
 8002f42:	07e4      	lsls	r4, r4, #31
 8002f44:	d403      	bmi.n	8002f4e <osKernelInitialize+0x1e>
 8002f46:	e8bd 4010 	ldmia.w	sp!, {r4, lr}
 8002f4a:	f7ff bfbb 	b.w	8002ec4 <svcKernelInitialize>
 8002f4e:	f8df c00c 	ldr.w	r12, [pc, #12]	; 8002f5c <osKernelInitialize+0x2c>
 8002f52:	df00      	svc	0
 8002f54:	bd10      	pop	{r4, pc}
 8002f56:	2082      	movs	r0, #130	; 0x82
 8002f58:	bd10      	pop	{r4, pc}
 8002f5a:	0000      	.short	0x0000
 8002f5c:	08002ec5 	.word	0x08002ec5

08002f60 <svcMessageGet>:
 8002f60:	e92d 41ff 	stmdb	sp!, {r0, r1, r2, r3, r4, r5, r6, r7, r8, lr}
 8002f64:	460c      	mov	r4, r1
 8002f66:	4680      	mov	r8, r0
 8002f68:	b318      	cbz	r0, 8002fb2 <svcMessageGet+0x52>
 8002f6a:	7803      	ldrb	r3, [r0, #0]
 8002f6c:	2b01      	cmp	r3, #1
 8002f6e:	d125      	bne.n	8002fbc <svcMessageGet+0x5c>
 8002f70:	4608      	mov	r0, r1
 8002f72:	f7ff fc35 	bl	80027e0 <rt_ms2tick>
 8002f76:	a902      	add	r1, sp, #8
 8002f78:	4602      	mov	r2, r0
 8002f7a:	4640      	mov	r0, r8
 8002f7c:	f7ff f966 	bl	800224c <rt_mbx_wait>
 8002f80:	2801      	cmp	r0, #1
 8002f82:	d111      	bne.n	8002fa8 <svcMessageGet+0x48>
 8002f84:	2000      	movs	r0, #0
 8002f86:	2c00      	cmp	r4, #0
 8002f88:	4602      	mov	r2, r0
 8002f8a:	4603      	mov	r3, r0
 8002f8c:	bf18      	it	ne
 8002f8e:	2040      	movne	r0, #64	; 0x40
 8002f90:	9902      	ldr	r1, [sp, #8]
 8002f92:	4604      	mov	r4, r0
 8002f94:	460d      	mov	r5, r1
 8002f96:	4616      	mov	r6, r2
 8002f98:	461f      	mov	r7, r3
 8002f9a:	4620      	mov	r0, r4
 8002f9c:	4629      	mov	r1, r5
 8002f9e:	4632      	mov	r2, r6
 8002fa0:	463b      	mov	r3, r7
 8002fa2:	b004      	add	sp, #16
 8002fa4:	e8bd 81f0 	ldmia.w	sp!, {r4, r5, r6, r7, r8, pc}
 8002fa8:	2000      	movs	r0, #0
 8002faa:	4602      	mov	r2, r0
 8002fac:	4603      	mov	r3, r0
 8002fae:	2010      	movs	r0, #16
 8002fb0:	e7ee      	b.n	8002f90 <svcMessageGet+0x30>
 8002fb2:	2480      	movs	r4, #128	; 0x80
 8002fb4:	4605      	mov	r5, r0
 8002fb6:	4606      	mov	r6, r0
 8002fb8:	4607      	mov	r7, r0
 8002fba:	e7ee      	b.n	8002f9a <svcMessageGet+0x3a>
 8002fbc:	2500      	movs	r5, #0
 8002fbe:	2480      	movs	r4, #128	; 0x80
 8002fc0:	462e      	mov	r6, r5
 8002fc2:	462f      	mov	r7, r5
 8002fc4:	e7e9      	b.n	8002f9a <svcMessageGet+0x3a>

08002fc6 <isrMessagePut>:
 8002fc6:	b570      	push	{r4, r5, r6, lr}
 8002fc8:	460e      	mov	r6, r1
 8002fca:	4614      	mov	r4, r2
 8002fcc:	4605      	mov	r5, r0
 8002fce:	b160      	cbz	r0, 8002fea <isrMessagePut+0x24>
 8002fd0:	b95a      	cbnz	r2, 8002fea <isrMessagePut+0x24>
 8002fd2:	7803      	ldrb	r3, [r0, #0]
 8002fd4:	2b01      	cmp	r3, #1
 8002fd6:	d108      	bne.n	8002fea <isrMessagePut+0x24>
 8002fd8:	f7ff f98e 	bl	80022f8 <rt_mbx_check>
 8002fdc:	b138      	cbz	r0, 8002fee <isrMessagePut+0x28>
 8002fde:	4628      	mov	r0, r5
 8002fe0:	4631      	mov	r1, r6
 8002fe2:	f7ff f98d 	bl	8002300 <isr_mbx_send>
 8002fe6:	4620      	mov	r0, r4
 8002fe8:	bd70      	pop	{r4, r5, r6, pc}
 8002fea:	2080      	movs	r0, #128	; 0x80
 8002fec:	bd70      	pop	{r4, r5, r6, pc}
 8002fee:	2081      	movs	r0, #129	; 0x81
 8002ff0:	bd70      	pop	{r4, r5, r6, pc}
	...

08002ff4 <sysTimerTick>:
 8002ff4:	b5f8      	push	{r3, r4, r5, r6, r7, lr}
 8002ff6:	4e11      	ldr	r6, [pc, #68]	; (800303c <sysTimerTick+0x48>)
 8002ff8:	6834      	ldr	r4, [r6, #0]
 8002ffa:	b12c      	cbz	r4, 8003008 <sysTimerTick+0x14>
 8002ffc:	68a3      	ldr	r3, [r4, #8]
 8002ffe:	4f10      	ldr	r7, [pc, #64]	; (8003040 <sysTimerTick+0x4c>)
 8003000:	3b01      	subs	r3, #1
 8003002:	60a3      	str	r3, [r4, #8]
 8003004:	68a2      	ldr	r2, [r4, #8]
 8003006:	b102      	cbz	r2, 800300a <sysTimerTick+0x16>
 8003008:	bdf8      	pop	{r3, r4, r5, r6, r7, pc}
 800300a:	6825      	ldr	r5, [r4, #0]
 800300c:	6838      	ldr	r0, [r7, #0]
 800300e:	6035      	str	r5, [r6, #0]
 8003010:	4621      	mov	r1, r4
 8003012:	f7ff ffd8 	bl	8002fc6 <isrMessagePut>
 8003016:	b110      	cbz	r0, 800301e <sysTimerTick+0x2a>
 8003018:	2004      	movs	r0, #4
 800301a:	f7fe fe85 	bl	8001d28 <os_error>
 800301e:	7963      	ldrb	r3, [r4, #5]
 8003020:	2b01      	cmp	r3, #1
 8003022:	d107      	bne.n	8003034 <sysTimerTick+0x40>
 8003024:	68e1      	ldr	r1, [r4, #12]
 8003026:	4620      	mov	r0, r4
 8003028:	f7ff fbc0 	bl	80027ac <rt_timer_insert>
 800302c:	2d00      	cmp	r5, #0
 800302e:	d0eb      	beq.n	8003008 <sysTimerTick+0x14>
 8003030:	462c      	mov	r4, r5
 8003032:	e7e7      	b.n	8003004 <sysTimerTick+0x10>
 8003034:	2301      	movs	r3, #1
 8003036:	7123      	strb	r3, [r4, #4]
 8003038:	e7f8      	b.n	800302c <sysTimerTick+0x38>
 800303a:	bf00      	nop
 800303c:	20003010 	.word	0x20003010
 8003040:	2000268c 	.word	0x2000268c

08003044 <isrMessageGet>:
 8003044:	b57f      	push	{r0, r1, r2, r3, r4, r5, r6, lr}
 8003046:	4604      	mov	r4, r0
 8003048:	4616      	mov	r6, r2
 800304a:	4608      	mov	r0, r1
 800304c:	b101      	cbz	r1, 8003050 <isrMessageGet+0xc>
 800304e:	b122      	cbz	r2, 800305a <isrMessageGet+0x16>
 8003050:	2380      	movs	r3, #128	; 0x80
 8003052:	6023      	str	r3, [r4, #0]
 8003054:	4620      	mov	r0, r4
 8003056:	b004      	add	sp, #16
 8003058:	bd70      	pop	{r4, r5, r6, pc}
 800305a:	780b      	ldrb	r3, [r1, #0]
 800305c:	2b01      	cmp	r3, #1
 800305e:	d1f7      	bne.n	8003050 <isrMessageGet+0xc>
 8003060:	a902      	add	r1, sp, #8
 8003062:	f7ff f954 	bl	800230e <isr_mbx_receive>
 8003066:	2804      	cmp	r0, #4
 8003068:	bf08      	it	eq
 800306a:	2310      	moveq	r3, #16
 800306c:	ad01      	add	r5, sp, #4
 800306e:	bf14      	ite	ne
 8003070:	9601      	strne	r6, [sp, #4]
 8003072:	9301      	streq	r3, [sp, #4]
 8003074:	e895 0007 	ldmia.w	r5, {r0, r1, r2}
 8003078:	e884 0007 	stmia.w	r4, {r0, r1, r2}
 800307c:	e7ea      	b.n	8003054 <isrMessageGet+0x10>
	...

08003080 <osMessageGet>:
 8003080:	b538      	push	{r3, r4, r5, lr}
 8003082:	4604      	mov	r4, r0
 8003084:	4615      	mov	r5, r2
 8003086:	f3ef 8010 	mrs	r0, PRIMASK
 800308a:	b910      	cbnz	r0, 8003092 <osMessageGet+0x12>
 800308c:	f3ef 8005 	mrs	r0, IPSR
 8003090:	b128      	cbz	r0, 800309e <osMessageGet+0x1e>
 8003092:	462a      	mov	r2, r5
 8003094:	4620      	mov	r0, r4
 8003096:	f7ff ffd5 	bl	8003044 <isrMessageGet>
 800309a:	4620      	mov	r0, r4
 800309c:	bd38      	pop	{r3, r4, r5, pc}
 800309e:	4608      	mov	r0, r1
 80030a0:	4611      	mov	r1, r2
 80030a2:	f8df c00c 	ldr.w	r12, [pc, #12]	; 80030b0 <osMessageGet+0x30>
 80030a6:	df00      	svc	0
 80030a8:	e884 0007 	stmia.w	r4, {r0, r1, r2}
 80030ac:	e7f5      	b.n	800309a <osMessageGet+0x1a>
 80030ae:	0000      	.short	0x0000
 80030b0:	08002f61 	.word	0x08002f61

080030b4 <osTimerThread>:
 80030b4:	b57f      	push	{r0, r1, r2, r3, r4, r5, r6, lr}
 80030b6:	4c0a      	ldr	r4, [pc, #40]	; (80030e0 <osTimerThread+0x2c>)
 80030b8:	6821      	ldr	r1, [r4, #0]
 80030ba:	f04f 32ff 	mov.w	r2, #4294967295	; 0xffffffff
 80030be:	a803      	add	r0, sp, #12
 80030c0:	f7ff ffde 	bl	8003080 <osMessageGet>
 80030c4:	9b03      	ldr	r3, [sp, #12]
 80030c6:	2b10      	cmp	r3, #16
 80030c8:	d1f6      	bne.n	80030b8 <osTimerThread+0x4>
 80030ca:	9904      	ldr	r1, [sp, #16]
 80030cc:	a801      	add	r0, sp, #4
 80030ce:	f7ff fcb9 	bl	8002a44 <osTimerCall>
 80030d2:	9b01      	ldr	r3, [sp, #4]
 80030d4:	2b00      	cmp	r3, #0
 80030d6:	d0ef      	beq.n	80030b8 <osTimerThread+0x4>
 80030d8:	9802      	ldr	r0, [sp, #8]
 80030da:	4798      	blx	r3
 80030dc:	e7ec      	b.n	80030b8 <osTimerThread+0x4>
 80030de:	bf00      	nop
 80030e0:	2000268c 	.word	0x2000268c

080030e4 <rt_switch_req>:
 80030e4:	4b05      	ldr	r3, [pc, #20]	; (80030fc <rt_switch_req+0x18>)
 80030e6:	6058      	str	r0, [r3, #4]
 80030e8:	2302      	movs	r3, #2
 80030ea:	7043      	strb	r3, [r0, #1]
 80030ec:	4b04      	ldr	r3, [pc, #16]	; (8003100 <rt_switch_req+0x1c>)
 80030ee:	681b      	ldr	r3, [r3, #0]
 80030f0:	b11b      	cbz	r3, 80030fa <rt_switch_req+0x16>
 80030f2:	691b      	ldr	r3, [r3, #16]
 80030f4:	b10b      	cbz	r3, 80030fa <rt_switch_req+0x16>
 80030f6:	6bc0      	ldr	r0, [r0, #60]	; 0x3c
 80030f8:	4718      	bx	r3
 80030fa:	4770      	bx	lr
 80030fc:	20003014 	.word	0x20003014
 8003100:	20002ffc 	.word	0x20002ffc

08003104 <rt_dispatch.part.0>:
 8003104:	b508      	push	{r3, lr}
 8003106:	4803      	ldr	r0, [pc, #12]	; (8003114 <rt_dispatch.part.0+0x10>)
 8003108:	f7fe fe74 	bl	8001df4 <rt_get_first>
 800310c:	e8bd 4008 	ldmia.w	sp!, {r3, lr}
 8003110:	f7ff bfe8 	b.w	80030e4 <rt_switch_req>
 8003114:	20002fc8 	.word	0x20002fc8

08003118 <rt_dispatch>:
 8003118:	b570      	push	{r4, r5, r6, lr}
 800311a:	4604      	mov	r4, r0
 800311c:	b918      	cbnz	r0, 8003126 <rt_dispatch+0xe>
 800311e:	e8bd 4070 	ldmia.w	sp!, {r4, r5, r6, lr}
 8003122:	f7ff bfef 	b.w	8003104 <rt_dispatch.part.0>
 8003126:	4e0c      	ldr	r6, [pc, #48]	; (8003158 <rt_dispatch+0x40>)
 8003128:	78a2      	ldrb	r2, [r4, #2]
 800312a:	6830      	ldr	r0, [r6, #0]
 800312c:	7883      	ldrb	r3, [r0, #2]
 800312e:	429a      	cmp	r2, r3
 8003130:	f04f 0501 	mov.w	r5, #1
 8003134:	d908      	bls.n	8003148 <rt_dispatch+0x30>
 8003136:	f7fe fe6f 	bl	8001e18 <rt_put_rdy_first>
 800313a:	6833      	ldr	r3, [r6, #0]
 800313c:	705d      	strb	r5, [r3, #1]
 800313e:	4620      	mov	r0, r4
 8003140:	e8bd 4070 	ldmia.w	sp!, {r4, r5, r6, lr}
 8003144:	f7ff bfce 	b.w	80030e4 <rt_switch_req>
 8003148:	7065      	strb	r5, [r4, #1]
 800314a:	4621      	mov	r1, r4
 800314c:	4803      	ldr	r0, [pc, #12]	; (800315c <rt_dispatch+0x44>)
 800314e:	e8bd 4070 	ldmia.w	sp!, {r4, r5, r6, lr}
 8003152:	f7fe be37 	b.w	8001dc4 <rt_put_prio>
 8003156:	bf00      	nop
 8003158:	20003014 	.word	0x20003014
 800315c:	20002fc8 	.word	0x20002fc8

08003160 <rt_block>:
 8003160:	b538      	push	{r3, r4, r5, lr}
 8003162:	460d      	mov	r5, r1
 8003164:	4601      	mov	r1, r0
 8003166:	b180      	cbz	r0, 800318a <rt_block+0x2a>
 8003168:	f64f 73ff 	movw	r3, #65535	; 0xffff
 800316c:	4298      	cmp	r0, r3
 800316e:	4c07      	ldr	r4, [pc, #28]	; (800318c <rt_block+0x2c>)
 8003170:	d002      	beq.n	8003178 <rt_block+0x18>
 8003172:	6820      	ldr	r0, [r4, #0]
 8003174:	f7fe fe5a 	bl	8001e2c <rt_put_dly>
 8003178:	6823      	ldr	r3, [r4, #0]
 800317a:	4805      	ldr	r0, [pc, #20]	; (8003190 <rt_block+0x30>)
 800317c:	705d      	strb	r5, [r3, #1]
 800317e:	f7fe fe39 	bl	8001df4 <rt_get_first>
 8003182:	e8bd 4038 	ldmia.w	sp!, {r3, r4, r5, lr}
 8003186:	f7ff bfad 	b.w	80030e4 <rt_switch_req>
 800318a:	bd38      	pop	{r3, r4, r5, pc}
 800318c:	20003014 	.word	0x20003014
 8003190:	20002fc8 	.word	0x20002fc8

08003194 <rt_tsk_self>:
 8003194:	4b02      	ldr	r3, [pc, #8]	; (80031a0 <rt_tsk_self+0xc>)
 8003196:	6818      	ldr	r0, [r3, #0]
 8003198:	b100      	cbz	r0, 800319c <rt_tsk_self+0x8>
 800319a:	78c0      	ldrb	r0, [r0, #3]
 800319c:	4770      	bx	lr
 800319e:	bf00      	nop
 80031a0:	20003014 	.word	0x20003014

080031a4 <rt_tsk_prio>:
 80031a4:	b510      	push	{r4, lr}
 80031a6:	b9a8      	cbnz	r0, 80031d4 <rt_tsk_prio+0x30>
 80031a8:	4b19      	ldr	r3, [pc, #100]	; (8003210 <rt_tsk_prio+0x6c>)
 80031aa:	681b      	ldr	r3, [r3, #0]
 80031ac:	7099      	strb	r1, [r3, #2]
 80031ae:	f883 1024 	strb.w	r1, [r3, #36]	; 0x24
 80031b2:	4818      	ldr	r0, [pc, #96]	; (8003214 <rt_tsk_prio+0x70>)
 80031b4:	6843      	ldr	r3, [r0, #4]
 80031b6:	789b      	ldrb	r3, [r3, #2]
 80031b8:	428b      	cmp	r3, r1
 80031ba:	d801      	bhi.n	80031c0 <rt_tsk_prio+0x1c>
 80031bc:	2000      	movs	r0, #0
 80031be:	bd10      	pop	{r4, pc}
 80031c0:	4c13      	ldr	r4, [pc, #76]	; (8003210 <rt_tsk_prio+0x6c>)
 80031c2:	6821      	ldr	r1, [r4, #0]
 80031c4:	f7fe fdfe 	bl	8001dc4 <rt_put_prio>
 80031c8:	6823      	ldr	r3, [r4, #0]
 80031ca:	2201      	movs	r2, #1
 80031cc:	705a      	strb	r2, [r3, #1]
 80031ce:	f7ff ff99 	bl	8003104 <rt_dispatch.part.0>
 80031d2:	e7f3      	b.n	80031bc <rt_tsk_prio+0x18>
 80031d4:	4b10      	ldr	r3, [pc, #64]	; (8003218 <rt_tsk_prio+0x74>)
 80031d6:	881b      	ldrh	r3, [r3, #0]
 80031d8:	4298      	cmp	r0, r3
 80031da:	d817      	bhi.n	800320c <rt_tsk_prio+0x68>
 80031dc:	3801      	subs	r0, #1
 80031de:	4b0f      	ldr	r3, [pc, #60]	; (800321c <rt_tsk_prio+0x78>)
 80031e0:	f853 4020 	ldr.w	r4, [r3, r0, lsl #2]
 80031e4:	b194      	cbz	r4, 800320c <rt_tsk_prio+0x68>
 80031e6:	4b0a      	ldr	r3, [pc, #40]	; (8003210 <rt_tsk_prio+0x6c>)
 80031e8:	70a1      	strb	r1, [r4, #2]
 80031ea:	681b      	ldr	r3, [r3, #0]
 80031ec:	f884 1024 	strb.w	r1, [r4, #36]	; 0x24
 80031f0:	429c      	cmp	r4, r3
 80031f2:	d0de      	beq.n	80031b2 <rt_tsk_prio+0xe>
 80031f4:	4620      	mov	r0, r4
 80031f6:	f7fe fe8b 	bl	8001f10 <rt_resort_prio>
 80031fa:	7863      	ldrb	r3, [r4, #1]
 80031fc:	2b01      	cmp	r3, #1
 80031fe:	d1dd      	bne.n	80031bc <rt_tsk_prio+0x18>
 8003200:	4804      	ldr	r0, [pc, #16]	; (8003214 <rt_tsk_prio+0x70>)
 8003202:	f7fe fdf7 	bl	8001df4 <rt_get_first>
 8003206:	f7ff ff87 	bl	8003118 <rt_dispatch>
 800320a:	e7d7      	b.n	80031bc <rt_tsk_prio+0x18>
 800320c:	20ff      	movs	r0, #255	; 0xff
 800320e:	bd10      	pop	{r4, pc}
 8003210:	20003014 	.word	0x20003014
 8003214:	20002fc8 	.word	0x20002fc8
 8003218:	0800847c 	.word	0x0800847c
 800321c:	200029b0 	.word	0x200029b0

08003220 <rt_tsk_create>:
 8003220:	e92d 47f0 	stmdb	sp!, {r4, r5, r6, r7, r8, r9, r10, lr}
 8003224:	f011 0fff 	tst.w	r1, #255	; 0xff
 8003228:	460d      	mov	r5, r1
 800322a:	4680      	mov	r8, r0
 800322c:	4823      	ldr	r0, [pc, #140]	; (80032bc <rt_tsk_create+0x9c>)
 800322e:	4616      	mov	r6, r2
 8003230:	469a      	mov	r10, r3
 8003232:	bf08      	it	eq
 8003234:	3501      	addeq	r5, #1
 8003236:	f7fe ffda 	bl	80021ee <rt_alloc_box>
 800323a:	4604      	mov	r4, r0
 800323c:	b920      	cbnz	r0, 8003248 <rt_tsk_create+0x28>
 800323e:	f04f 0900 	mov.w	r9, #0
 8003242:	4648      	mov	r0, r9
 8003244:	e8bd 87f0 	ldmia.w	sp!, {r4, r5, r6, r7, r8, r9, r10, pc}
 8003248:	4b1d      	ldr	r3, [pc, #116]	; (80032c0 <rt_tsk_create+0xa0>)
 800324a:	6306      	str	r6, [r0, #48]	; 0x30
 800324c:	881b      	ldrh	r3, [r3, #0]
 800324e:	4e1d      	ldr	r6, [pc, #116]	; (80032c4 <rt_tsk_create+0xa4>)
 8003250:	0a28      	lsrs	r0, r5, #8
 8003252:	62a0      	str	r0, [r4, #40]	; 0x28
 8003254:	2100      	movs	r1, #0
 8003256:	428b      	cmp	r3, r1
 8003258:	f101 0901 	add.w	r9, r1, #1
 800325c:	d0ef      	beq.n	800323e <rt_tsk_create+0x1e>
 800325e:	eb06 0289 	add.w	r2, r6, r9, lsl #2
 8003262:	460f      	mov	r7, r1
 8003264:	f852 2c04 	ldr.w	r2, [r2, #-4]
 8003268:	4649      	mov	r1, r9
 800326a:	2a00      	cmp	r2, #0
 800326c:	d1f3      	bne.n	8003256 <rt_tsk_create+0x36>
 800326e:	b2ed      	uxtb	r5, r5
 8003270:	2301      	movs	r3, #1
 8003272:	f884 9003 	strb.w	r9, [r4, #3]
 8003276:	f8c4 a01c 	str.w	r10, [r4, #28]
 800327a:	f8c4 a038 	str.w	r10, [r4, #56]	; 0x38
 800327e:	7022      	strb	r2, [r4, #0]
 8003280:	7063      	strb	r3, [r4, #1]
 8003282:	70a5      	strb	r5, [r4, #2]
 8003284:	f884 5024 	strb.w	r5, [r4, #36]	; 0x24
 8003288:	6062      	str	r2, [r4, #4]
 800328a:	60a2      	str	r2, [r4, #8]
 800328c:	60e2      	str	r2, [r4, #12]
 800328e:	6122      	str	r2, [r4, #16]
 8003290:	6222      	str	r2, [r4, #32]
 8003292:	82a2      	strh	r2, [r4, #20]
 8003294:	82e2      	strh	r2, [r4, #22]
 8003296:	8322      	strh	r2, [r4, #24]
 8003298:	8362      	strh	r2, [r4, #26]
 800329a:	f884 2025 	strb.w	r2, [r4, #37]	; 0x25
 800329e:	b918      	cbnz	r0, 80032a8 <rt_tsk_create+0x88>
 80032a0:	4809      	ldr	r0, [pc, #36]	; (80032c8 <rt_tsk_create+0xa8>)
 80032a2:	f7fe ffa4 	bl	80021ee <rt_alloc_box>
 80032a6:	6320      	str	r0, [r4, #48]	; 0x30
 80032a8:	4620      	mov	r0, r4
 80032aa:	4641      	mov	r1, r8
 80032ac:	f7fe ff1a 	bl	80020e4 <rt_init_stack>
 80032b0:	4620      	mov	r0, r4
 80032b2:	f846 4027 	str.w	r4, [r6, r7, lsl #2]
 80032b6:	f7ff ff2f 	bl	8003118 <rt_dispatch>
 80032ba:	e7c2      	b.n	8003242 <rt_tsk_create+0x22>
 80032bc:	200029ec 	.word	0x200029ec
 80032c0:	0800847c 	.word	0x0800847c
 80032c4:	200029b0 	.word	0x200029b0
 80032c8:	20002db8 	.word	0x20002db8

080032cc <rt_tsk_delete>:
 80032cc:	e92d 4ff8 	stmdb	sp!, {r3, r4, r5, r6, r7, r8, r9, r10, r11, lr}
 80032d0:	4d4d      	ldr	r5, [pc, #308]	; (8003408 <rt_tsk_delete+0x13c>)
 80032d2:	b118      	cbz	r0, 80032dc <rt_tsk_delete+0x10>
 80032d4:	682b      	ldr	r3, [r5, #0]
 80032d6:	78db      	ldrb	r3, [r3, #3]
 80032d8:	4298      	cmp	r0, r3
 80032da:	d141      	bne.n	8003360 <rt_tsk_delete+0x94>
 80032dc:	682c      	ldr	r4, [r5, #0]
 80032de:	f8df 813c 	ldr.w	r8, [pc, #316]	; 800341c <rt_tsk_delete+0x150>
 80032e2:	2300      	movs	r3, #0
 80032e4:	7063      	strb	r3, [r4, #1]
 80032e6:	f003 f8ce 	bl	8006486 <rt_get_PSP>
 80032ea:	62e0      	str	r0, [r4, #44]	; 0x2c
 80032ec:	f7fe fee8 	bl	80020c0 <rt_stk_check>
 80032f0:	682b      	ldr	r3, [r5, #0]
 80032f2:	6a1c      	ldr	r4, [r3, #32]
 80032f4:	2701      	movs	r7, #1
 80032f6:	b9a4      	cbnz	r4, 8003322 <rt_tsk_delete+0x56>
 80032f8:	682a      	ldr	r2, [r5, #0]
 80032fa:	4944      	ldr	r1, [pc, #272]	; (800340c <rt_tsk_delete+0x140>)
 80032fc:	78d3      	ldrb	r3, [r2, #3]
 80032fe:	4844      	ldr	r0, [pc, #272]	; (8003410 <rt_tsk_delete+0x144>)
 8003300:	3b01      	subs	r3, #1
 8003302:	f841 4023 	str.w	r4, [r1, r3, lsl #2]
 8003306:	6b11      	ldr	r1, [r2, #48]	; 0x30
 8003308:	f7fe ff7e 	bl	8002208 <rt_free_box>
 800330c:	6829      	ldr	r1, [r5, #0]
 800330e:	4841      	ldr	r0, [pc, #260]	; (8003414 <rt_tsk_delete+0x148>)
 8003310:	630c      	str	r4, [r1, #48]	; 0x30
 8003312:	f7fe ff79 	bl	8002208 <rt_free_box>
 8003316:	602c      	str	r4, [r5, #0]
 8003318:	f7ff fef4 	bl	8003104 <rt_dispatch.part.0>
 800331c:	4620      	mov	r0, r4
 800331e:	e8bd 8ff8 	ldmia.w	sp!, {r3, r4, r5, r6, r7, r8, r9, r10, r11, pc}
 8003322:	6863      	ldr	r3, [r4, #4]
 8003324:	b1b3      	cbz	r3, 8003354 <rt_tsk_delete+0x88>
 8003326:	4620      	mov	r0, r4
 8003328:	f7fe fd64 	bl	8001df4 <rt_get_first>
 800332c:	2100      	movs	r1, #0
 800332e:	4606      	mov	r6, r0
 8003330:	f7fe ff24 	bl	800217c <rt_ret_val>
 8003334:	4630      	mov	r0, r6
 8003336:	f7fe fe03 	bl	8001f40 <rt_rmv_dly>
 800333a:	7077      	strb	r7, [r6, #1]
 800333c:	4631      	mov	r1, r6
 800333e:	4640      	mov	r0, r8
 8003340:	f7fe fd40 	bl	8001dc4 <rt_put_prio>
 8003344:	68e3      	ldr	r3, [r4, #12]
 8003346:	6a32      	ldr	r2, [r6, #32]
 8003348:	8067      	strh	r7, [r4, #2]
 800334a:	60a6      	str	r6, [r4, #8]
 800334c:	60e2      	str	r2, [r4, #12]
 800334e:	6234      	str	r4, [r6, #32]
 8003350:	461c      	mov	r4, r3
 8003352:	e7d0      	b.n	80032f6 <rt_tsk_delete+0x2a>
 8003354:	68e2      	ldr	r2, [r4, #12]
 8003356:	8063      	strh	r3, [r4, #2]
 8003358:	60a3      	str	r3, [r4, #8]
 800335a:	60e3      	str	r3, [r4, #12]
 800335c:	4614      	mov	r4, r2
 800335e:	e7ca      	b.n	80032f6 <rt_tsk_delete+0x2a>
 8003360:	4b2d      	ldr	r3, [pc, #180]	; (8003418 <rt_tsk_delete+0x14c>)
 8003362:	881b      	ldrh	r3, [r3, #0]
 8003364:	4298      	cmp	r0, r3
 8003366:	d84d      	bhi.n	8003404 <rt_tsk_delete+0x138>
 8003368:	4b28      	ldr	r3, [pc, #160]	; (800340c <rt_tsk_delete+0x140>)
 800336a:	1e47      	subs	r7, r0, #1
 800336c:	4699      	mov	r9, r3
 800336e:	f853 6027 	ldr.w	r6, [r3, r7, lsl #2]
 8003372:	2e00      	cmp	r6, #0
 8003374:	d046      	beq.n	8003404 <rt_tsk_delete+0x138>
 8003376:	4630      	mov	r0, r6
 8003378:	f7fe fdb4 	bl	8001ee4 <rt_rmv_list>
 800337c:	4630      	mov	r0, r6
 800337e:	f7fe fddf 	bl	8001f40 <rt_rmv_dly>
 8003382:	f8df b098 	ldr.w	r11, [pc, #152]	; 800341c <rt_tsk_delete+0x150>
 8003386:	6a34      	ldr	r4, [r6, #32]
 8003388:	f04f 0a01 	mov.w	r10, #1
 800338c:	b9b4      	cbnz	r4, 80033bc <rt_tsk_delete+0xf0>
 800338e:	6b31      	ldr	r1, [r6, #48]	; 0x30
 8003390:	481f      	ldr	r0, [pc, #124]	; (8003410 <rt_tsk_delete+0x144>)
 8003392:	f849 4027 	str.w	r4, [r9, r7, lsl #2]
 8003396:	f7fe ff37 	bl	8002208 <rt_free_box>
 800339a:	4631      	mov	r1, r6
 800339c:	6334      	str	r4, [r6, #48]	; 0x30
 800339e:	481d      	ldr	r0, [pc, #116]	; (8003414 <rt_tsk_delete+0x148>)
 80033a0:	f7fe ff32 	bl	8002208 <rt_free_box>
 80033a4:	481d      	ldr	r0, [pc, #116]	; (800341c <rt_tsk_delete+0x150>)
 80033a6:	6829      	ldr	r1, [r5, #0]
 80033a8:	6843      	ldr	r3, [r0, #4]
 80033aa:	789a      	ldrb	r2, [r3, #2]
 80033ac:	788b      	ldrb	r3, [r1, #2]
 80033ae:	429a      	cmp	r2, r3
 80033b0:	d9b4      	bls.n	800331c <rt_tsk_delete+0x50>
 80033b2:	2301      	movs	r3, #1
 80033b4:	704b      	strb	r3, [r1, #1]
 80033b6:	f7fe fd05 	bl	8001dc4 <rt_put_prio>
 80033ba:	e7ad      	b.n	8003318 <rt_tsk_delete+0x4c>
 80033bc:	6863      	ldr	r3, [r4, #4]
 80033be:	b1db      	cbz	r3, 80033f8 <rt_tsk_delete+0x12c>
 80033c0:	4620      	mov	r0, r4
 80033c2:	f7fe fd17 	bl	8001df4 <rt_get_first>
 80033c6:	2100      	movs	r1, #0
 80033c8:	4680      	mov	r8, r0
 80033ca:	f7fe fed7 	bl	800217c <rt_ret_val>
 80033ce:	4640      	mov	r0, r8
 80033d0:	f7fe fdb6 	bl	8001f40 <rt_rmv_dly>
 80033d4:	f888 a001 	strb.w	r10, [r8, #1]
 80033d8:	4641      	mov	r1, r8
 80033da:	4658      	mov	r0, r11
 80033dc:	f7fe fcf2 	bl	8001dc4 <rt_put_prio>
 80033e0:	68e3      	ldr	r3, [r4, #12]
 80033e2:	f8d8 2020 	ldr.w	r2, [r8, #32]
 80033e6:	f8a4 a002 	strh.w	r10, [r4, #2]
 80033ea:	f8c4 8008 	str.w	r8, [r4, #8]
 80033ee:	60e2      	str	r2, [r4, #12]
 80033f0:	f8c8 4020 	str.w	r4, [r8, #32]
 80033f4:	461c      	mov	r4, r3
 80033f6:	e7c9      	b.n	800338c <rt_tsk_delete+0xc0>
 80033f8:	68e2      	ldr	r2, [r4, #12]
 80033fa:	8063      	strh	r3, [r4, #2]
 80033fc:	60a3      	str	r3, [r4, #8]
 80033fe:	60e3      	str	r3, [r4, #12]
 8003400:	4614      	mov	r4, r2
 8003402:	e7c3      	b.n	800338c <rt_tsk_delete+0xc0>
 8003404:	24ff      	movs	r4, #255	; 0xff
 8003406:	e789      	b.n	800331c <rt_tsk_delete+0x50>
 8003408:	20003014 	.word	0x20003014
 800340c:	200029b0 	.word	0x200029b0
 8003410:	20002db8 	.word	0x20002db8
 8003414:	200029ec 	.word	0x200029ec
 8003418:	0800847c 	.word	0x0800847c
 800341c:	20002fc8 	.word	0x20002fc8

08003420 <rt_sys_init>:
 8003420:	b538      	push	{r3, r4, r5, lr}
 8003422:	4b2c      	ldr	r3, [pc, #176]	; (80034d4 <rt_sys_init+0xb4>)
 8003424:	492c      	ldr	r1, [pc, #176]	; (80034d8 <rt_sys_init+0xb8>)
 8003426:	881a      	ldrh	r2, [r3, #0]
 8003428:	2300      	movs	r3, #0
 800342a:	4618      	mov	r0, r3
 800342c:	4293      	cmp	r3, r2
 800342e:	d34d      	bcc.n	80034cc <rt_sys_init+0xac>
 8003430:	4b2a      	ldr	r3, [pc, #168]	; (80034dc <rt_sys_init+0xbc>)
 8003432:	482b      	ldr	r0, [pc, #172]	; (80034e0 <rt_sys_init+0xc0>)
 8003434:	8819      	ldrh	r1, [r3, #0]
 8003436:	4c2b      	ldr	r4, [pc, #172]	; (80034e4 <rt_sys_init+0xc4>)
 8003438:	2240      	movs	r2, #64	; 0x40
 800343a:	f7fe feb3 	bl	80021a4 <_init_box>
 800343e:	4b2a      	ldr	r3, [pc, #168]	; (80034e8 <rt_sys_init+0xc8>)
 8003440:	482a      	ldr	r0, [pc, #168]	; (80034ec <rt_sys_init+0xcc>)
 8003442:	881a      	ldrh	r2, [r3, #0]
 8003444:	4b2a      	ldr	r3, [pc, #168]	; (80034f0 <rt_sys_init+0xd0>)
 8003446:	f042 4200 	orr.w	r2, r2, #2147483648	; 0x80000000
 800344a:	6819      	ldr	r1, [r3, #0]
 800344c:	f7fe feaa 	bl	80021a4 <_init_box>
 8003450:	4b28      	ldr	r3, [pc, #160]	; (80034f4 <rt_sys_init+0xd4>)
 8003452:	8819      	ldrh	r1, [r3, #0]
 8003454:	4b28      	ldr	r3, [pc, #160]	; (80034f8 <rt_sys_init+0xd8>)
 8003456:	2208      	movs	r2, #8
 8003458:	6818      	ldr	r0, [r3, #0]
 800345a:	f7fe fea3 	bl	80021a4 <_init_box>
 800345e:	23ff      	movs	r3, #255	; 0xff
 8003460:	2500      	movs	r5, #0
 8003462:	70e3      	strb	r3, [r4, #3]
 8003464:	4821      	ldr	r0, [pc, #132]	; (80034ec <rt_sys_init+0xcc>)
 8003466:	62a5      	str	r5, [r4, #40]	; 0x28
 8003468:	2301      	movs	r3, #1
 800346a:	7063      	strb	r3, [r4, #1]
 800346c:	7025      	strb	r5, [r4, #0]
 800346e:	70a5      	strb	r5, [r4, #2]
 8003470:	f884 5024 	strb.w	r5, [r4, #36]	; 0x24
 8003474:	6065      	str	r5, [r4, #4]
 8003476:	60a5      	str	r5, [r4, #8]
 8003478:	60e5      	str	r5, [r4, #12]
 800347a:	6125      	str	r5, [r4, #16]
 800347c:	6225      	str	r5, [r4, #32]
 800347e:	82a5      	strh	r5, [r4, #20]
 8003480:	82e5      	strh	r5, [r4, #22]
 8003482:	8325      	strh	r5, [r4, #24]
 8003484:	8365      	strh	r5, [r4, #26]
 8003486:	f884 5025 	strb.w	r5, [r4, #37]	; 0x25
 800348a:	f7fe feb0 	bl	80021ee <rt_alloc_box>
 800348e:	491b      	ldr	r1, [pc, #108]	; (80034fc <rt_sys_init+0xdc>)
 8003490:	6320      	str	r0, [r4, #48]	; 0x30
 8003492:	4620      	mov	r0, r4
 8003494:	f7fe fe26 	bl	80020e4 <rt_init_stack>
 8003498:	4b19      	ldr	r3, [pc, #100]	; (8003500 <rt_sys_init+0xe0>)
 800349a:	2204      	movs	r2, #4
 800349c:	701a      	strb	r2, [r3, #0]
 800349e:	605d      	str	r5, [r3, #4]
 80034a0:	4b18      	ldr	r3, [pc, #96]	; (8003504 <rt_sys_init+0xe4>)
 80034a2:	701a      	strb	r2, [r3, #0]
 80034a4:	60dd      	str	r5, [r3, #12]
 80034a6:	611d      	str	r5, [r3, #16]
 80034a8:	829d      	strh	r5, [r3, #20]
 80034aa:	4b17      	ldr	r3, [pc, #92]	; (8003508 <rt_sys_init+0xe8>)
 80034ac:	4620      	mov	r0, r4
 80034ae:	601c      	str	r4, [r3, #0]
 80034b0:	2302      	movs	r3, #2
 80034b2:	7063      	strb	r3, [r4, #1]
 80034b4:	f7ff fe16 	bl	80030e4 <rt_switch_req>
 80034b8:	4a14      	ldr	r2, [pc, #80]	; (800350c <rt_sys_init+0xec>)
 80034ba:	4b15      	ldr	r3, [pc, #84]	; (8003510 <rt_sys_init+0xf0>)
 80034bc:	7812      	ldrb	r2, [r2, #0]
 80034be:	701d      	strb	r5, [r3, #0]
 80034c0:	705d      	strb	r5, [r3, #1]
 80034c2:	70da      	strb	r2, [r3, #3]
 80034c4:	e8bd 4038 	ldmia.w	sp!, {r3, r4, r5, lr}
 80034c8:	f7ff b940 	b.w	800274c <rt_init_robin>
 80034cc:	f841 0023 	str.w	r0, [r1, r3, lsl #2]
 80034d0:	3301      	adds	r3, #1
 80034d2:	e7ab      	b.n	800342c <rt_sys_init+0xc>
 80034d4:	0800847c 	.word	0x0800847c
 80034d8:	200029b0 	.word	0x200029b0
 80034dc:	08008448 	.word	0x08008448
 80034e0:	200029ec 	.word	0x200029ec
 80034e4:	2000301c 	.word	0x2000301c
 80034e8:	08008498 	.word	0x08008498
 80034ec:	20002db8 	.word	0x20002db8
 80034f0:	08008444 	.word	0x08008444
 80034f4:	0800844a 	.word	0x0800844a
 80034f8:	20000eac 	.word	0x20000eac
 80034fc:	08001d25 	.word	0x08001d25
 8003500:	20002fc8 	.word	0x20002fc8
 8003504:	20002fe0 	.word	0x20002fe0
 8003508:	20003014 	.word	0x20003014
 800350c:	08008479 	.word	0x08008479
 8003510:	20002600 	.word	0x20002600

08003514 <rt_sys_start>:
 8003514:	b508      	push	{r3, lr}
 8003516:	4b1e      	ldr	r3, [pc, #120]	; (8003590 <rt_sys_start+0x7c>)
 8003518:	681a      	ldr	r2, [r3, #0]
 800351a:	f442 027f 	orr.w	r2, r2, #16711680	; 0xff0000
 800351e:	601a      	str	r2, [r3, #0]
 8003520:	681b      	ldr	r3, [r3, #0]
 8003522:	021b      	lsls	r3, r3, #8
 8003524:	f003 437f 	and.w	r3, r3, #4278190080	; 0xff000000
 8003528:	43db      	mvns	r3, r3
 800352a:	fab3 f383 	clz	r3, r3
 800352e:	4a19      	ldr	r2, [pc, #100]	; (8003594 <rt_sys_start+0x80>)
 8003530:	4819      	ldr	r0, [pc, #100]	; (8003598 <rt_sys_start+0x84>)
 8003532:	6812      	ldr	r2, [r2, #0]
 8003534:	6801      	ldr	r1, [r0, #0]
 8003536:	b2db      	uxtb	r3, r3
 8003538:	f1c3 0308 	rsb	r3, r3, #8
 800353c:	f3c2 2202 	ubfx	r2, r2, #8, #3
 8003540:	4293      	cmp	r3, r2
 8003542:	bf98      	it	ls
 8003544:	1c53      	addls	r3, r2, #1
 8003546:	f06f 7280 	mvn.w	r2, #16777216	; 0x1000000
 800354a:	fa02 f303 	lsl.w	r3, r2, r3
 800354e:	f003 437f 	and.w	r3, r3, #4278190080	; 0xff000000
 8003552:	f021 427f 	bic.w	r2, r1, #4278190080	; 0xff000000
 8003556:	4313      	orrs	r3, r2
 8003558:	6003      	str	r3, [r0, #0]
 800355a:	f7fe fd79 	bl	8002050 <os_tick_init>
 800355e:	4b0f      	ldr	r3, [pc, #60]	; (800359c <rt_sys_start+0x88>)
 8003560:	2800      	cmp	r0, #0
 8003562:	6018      	str	r0, [r3, #0]
 8003564:	db12      	blt.n	800358c <rt_sys_start+0x78>
 8003566:	f100 4060 	add.w	r0, r0, #3758096384	; 0xe0000000
 800356a:	f500 4064 	add.w	r0, r0, #58368	; 0xe400
 800356e:	22ff      	movs	r2, #255	; 0xff
 8003570:	7002      	strb	r2, [r0, #0]
 8003572:	681a      	ldr	r2, [r3, #0]
 8003574:	0953      	lsrs	r3, r2, #5
 8003576:	009b      	lsls	r3, r3, #2
 8003578:	f103 4360 	add.w	r3, r3, #3758096384	; 0xe0000000
 800357c:	f503 4361 	add.w	r3, r3, #57600	; 0xe100
 8003580:	f002 021f 	and.w	r2, r2, #31
 8003584:	2101      	movs	r1, #1
 8003586:	fa01 f202 	lsl.w	r2, r1, r2
 800358a:	601a      	str	r2, [r3, #0]
 800358c:	bd08      	pop	{r3, pc}
 800358e:	bf00      	nop
 8003590:	e000ed20 	.word	0xe000ed20
 8003594:	e000ed0c 	.word	0xe000ed0c
 8003598:	e000ed1c 	.word	0xe000ed1c
 800359c:	20002ff8 	.word	0x20002ff8

080035a0 <rt_dly_wait>:
 80035a0:	2103      	movs	r1, #3
 80035a2:	f7ff bddd 	b.w	8003160 <rt_block>

080035a6 <rt_sem_init>:
 80035a6:	2302      	movs	r3, #2
 80035a8:	7003      	strb	r3, [r0, #0]
 80035aa:	2300      	movs	r3, #0
 80035ac:	6043      	str	r3, [r0, #4]
 80035ae:	8041      	strh	r1, [r0, #2]
 80035b0:	4770      	bx	lr
	...

080035b4 <rt_sem_delete>:
 80035b4:	b5f8      	push	{r3, r4, r5, r6, r7, lr}
 80035b6:	4f14      	ldr	r7, [pc, #80]	; (8003608 <rt_sem_delete+0x54>)
 80035b8:	4604      	mov	r4, r0
 80035ba:	2601      	movs	r6, #1
 80035bc:	6865      	ldr	r5, [r4, #4]
 80035be:	b99d      	cbnz	r5, 80035e8 <rt_sem_delete+0x34>
 80035c0:	4811      	ldr	r0, [pc, #68]	; (8003608 <rt_sem_delete+0x54>)
 80035c2:	6843      	ldr	r3, [r0, #4]
 80035c4:	b16b      	cbz	r3, 80035e2 <rt_sem_delete+0x2e>
 80035c6:	4e11      	ldr	r6, [pc, #68]	; (800360c <rt_sem_delete+0x58>)
 80035c8:	789a      	ldrb	r2, [r3, #2]
 80035ca:	6831      	ldr	r1, [r6, #0]
 80035cc:	788b      	ldrb	r3, [r1, #2]
 80035ce:	429a      	cmp	r2, r3
 80035d0:	d907      	bls.n	80035e2 <rt_sem_delete+0x2e>
 80035d2:	f7fe fbf7 	bl	8001dc4 <rt_put_prio>
 80035d6:	6833      	ldr	r3, [r6, #0]
 80035d8:	2201      	movs	r2, #1
 80035da:	705a      	strb	r2, [r3, #1]
 80035dc:	4628      	mov	r0, r5
 80035de:	f7ff fd9b 	bl	8003118 <rt_dispatch>
 80035e2:	2000      	movs	r0, #0
 80035e4:	7020      	strb	r0, [r4, #0]
 80035e6:	bdf8      	pop	{r3, r4, r5, r6, r7, pc}
 80035e8:	4620      	mov	r0, r4
 80035ea:	f7fe fc03 	bl	8001df4 <rt_get_first>
 80035ee:	2100      	movs	r1, #0
 80035f0:	4605      	mov	r5, r0
 80035f2:	f7fe fdc3 	bl	800217c <rt_ret_val>
 80035f6:	4628      	mov	r0, r5
 80035f8:	f7fe fca2 	bl	8001f40 <rt_rmv_dly>
 80035fc:	706e      	strb	r6, [r5, #1]
 80035fe:	4629      	mov	r1, r5
 8003600:	4638      	mov	r0, r7
 8003602:	f7fe fbdf 	bl	8001dc4 <rt_put_prio>
 8003606:	e7d9      	b.n	80035bc <rt_sem_delete+0x8>
 8003608:	20002fc8 	.word	0x20002fc8
 800360c:	20003014 	.word	0x20003014

08003610 <rt_sem_send>:
 8003610:	6842      	ldr	r2, [r0, #4]
 8003612:	b510      	push	{r4, lr}
 8003614:	b16a      	cbz	r2, 8003632 <rt_sem_send+0x22>
 8003616:	f7fe fbed 	bl	8001df4 <rt_get_first>
 800361a:	2101      	movs	r1, #1
 800361c:	4604      	mov	r4, r0
 800361e:	f7fe fdad 	bl	800217c <rt_ret_val>
 8003622:	4620      	mov	r0, r4
 8003624:	f7fe fc8c 	bl	8001f40 <rt_rmv_dly>
 8003628:	4620      	mov	r0, r4
 800362a:	f7ff fd75 	bl	8003118 <rt_dispatch>
 800362e:	2000      	movs	r0, #0
 8003630:	bd10      	pop	{r4, pc}
 8003632:	8842      	ldrh	r2, [r0, #2]
 8003634:	3201      	adds	r2, #1
 8003636:	8042      	strh	r2, [r0, #2]
 8003638:	e7f9      	b.n	800362e <rt_sem_send+0x1e>

0800363a <isr_sem_send>:
 800363a:	b508      	push	{r3, lr}
 800363c:	2100      	movs	r1, #0
 800363e:	f7fe fc93 	bl	8001f68 <rt_psq_enq>
 8003642:	e8bd 4008 	ldmia.w	sp!, {r3, lr}
 8003646:	f7fe bcb5 	b.w	8001fb4 <rt_psh_req>
	...

0800364c <rt_sem_psh>:
 800364c:	6842      	ldr	r2, [r0, #4]
 800364e:	b510      	push	{r4, lr}
 8003650:	b17a      	cbz	r2, 8003672 <rt_sem_psh+0x26>
 8003652:	f7fe fbcf 	bl	8001df4 <rt_get_first>
 8003656:	4604      	mov	r4, r0
 8003658:	f7fe fc72 	bl	8001f40 <rt_rmv_dly>
 800365c:	2101      	movs	r1, #1
 800365e:	7061      	strb	r1, [r4, #1]
 8003660:	4620      	mov	r0, r4
 8003662:	f7fe fd8b 	bl	800217c <rt_ret_val>
 8003666:	4621      	mov	r1, r4
 8003668:	4804      	ldr	r0, [pc, #16]	; (800367c <rt_sem_psh+0x30>)
 800366a:	e8bd 4010 	ldmia.w	sp!, {r4, lr}
 800366e:	f7fe bba9 	b.w	8001dc4 <rt_put_prio>
 8003672:	8842      	ldrh	r2, [r0, #2]
 8003674:	3201      	adds	r2, #1
 8003676:	8042      	strh	r2, [r0, #2]
 8003678:	bd10      	pop	{r4, pc}
 800367a:	bf00      	nop
 800367c:	20002fc8 	.word	0x20002fc8

08003680 <timer_irq_handler>:
 8003680:	b570      	push	{r4, r5, r6, lr}
 8003682:	4c13      	ldr	r4, [pc, #76]	; (80036d0 <timer_irq_handler+0x50>)
 8003684:	6823      	ldr	r3, [r4, #0]
 8003686:	691a      	ldr	r2, [r3, #16]
 8003688:	0795      	lsls	r5, r2, #30
 800368a:	d507      	bpl.n	800369c <timer_irq_handler+0x1c>
 800368c:	68da      	ldr	r2, [r3, #12]
 800368e:	0790      	lsls	r0, r2, #30
 8003690:	d504      	bpl.n	800369c <timer_irq_handler+0x1c>
 8003692:	f06f 0202 	mvn.w	r2, #2
 8003696:	611a      	str	r2, [r3, #16]
 8003698:	f7fe f9f8 	bl	8001a8c <us_ticker_irq_handler>
 800369c:	6823      	ldr	r3, [r4, #0]
 800369e:	691a      	ldr	r2, [r3, #16]
 80036a0:	0751      	lsls	r1, r2, #29
 80036a2:	d513      	bpl.n	80036cc <timer_irq_handler+0x4c>
 80036a4:	68da      	ldr	r2, [r3, #12]
 80036a6:	0752      	lsls	r2, r2, #29
 80036a8:	d510      	bpl.n	80036cc <timer_irq_handler+0x4c>
 80036aa:	f06f 0204 	mvn.w	r2, #4
 80036ae:	4e09      	ldr	r6, [pc, #36]	; (80036d4 <timer_irq_handler+0x54>)
 80036b0:	611a      	str	r2, [r3, #16]
 80036b2:	6a5d      	ldr	r5, [r3, #36]	; 0x24
 80036b4:	6833      	ldr	r3, [r6, #0]
 80036b6:	1aeb      	subs	r3, r5, r3
 80036b8:	f5b3 7f7a 	cmp.w	r3, #1000	; 0x3e8
 80036bc:	d306      	bcc.n	80036cc <timer_irq_handler+0x4c>
 80036be:	f002 f9f1 	bl	8005aa4 <HAL_IncTick>
 80036c2:	6823      	ldr	r3, [r4, #0]
 80036c4:	f505 727a 	add.w	r2, r5, #1000	; 0x3e8
 80036c8:	639a      	str	r2, [r3, #56]	; 0x38
 80036ca:	6035      	str	r5, [r6, #0]
 80036cc:	bd70      	pop	{r4, r5, r6, pc}
 80036ce:	bf00      	nop
 80036d0:	20003060 	.word	0x20003060
 80036d4:	20001f20 	.word	0x20001f20

080036d8 <HAL_InitTick>:
 80036d8:	b530      	push	{r4, r5, lr}
 80036da:	b089      	sub	sp, #36	; 0x24
 80036dc:	a901      	add	r1, sp, #4
 80036de:	a803      	add	r0, sp, #12
 80036e0:	f002 f986 	bl	80059f0 <HAL_RCC_GetClockConfig>
 80036e4:	f002 f954 	bl	8005990 <HAL_RCC_GetPCLK1Freq>
 80036e8:	4b24      	ldr	r3, [pc, #144]	; (800377c <HAL_InitTick+0xa4>)
 80036ea:	9001      	str	r0, [sp, #4]
 80036ec:	6d9a      	ldr	r2, [r3, #88]	; 0x58
 80036ee:	4c24      	ldr	r4, [pc, #144]	; (8003780 <HAL_InitTick+0xa8>)
 80036f0:	f042 0201 	orr.w	r2, r2, #1
 80036f4:	659a      	str	r2, [r3, #88]	; 0x58
 80036f6:	6d9a      	ldr	r2, [r3, #88]	; 0x58
 80036f8:	f002 0201 	and.w	r2, r2, #1
 80036fc:	9202      	str	r2, [sp, #8]
 80036fe:	9a02      	ldr	r2, [sp, #8]
 8003700:	6b9a      	ldr	r2, [r3, #56]	; 0x38
 8003702:	f042 0201 	orr.w	r2, r2, #1
 8003706:	639a      	str	r2, [r3, #56]	; 0x38
 8003708:	6b9a      	ldr	r2, [r3, #56]	; 0x38
 800370a:	f022 0201 	bic.w	r2, r2, #1
 800370e:	639a      	str	r2, [r3, #56]	; 0x38
 8003710:	9a06      	ldr	r2, [sp, #24]
